(lp0
(V\u4f46\u662f\u6211\u4e0d\u80fd\u53bb\u53c2\u52a0\uff0c\u56e0\u4e3a\u6211\u6709\u4e00\u70b9\u4e8b\u60c5\u963f\uff01
p1
(lp2
(L18L
V\u6709\u4e00\u70b9\u4e8b\u60c5\u963f
p3
V\u6709\u4e00\u70b9\u4e8b\u60c5\u554a
p4
tp5
atp6
a(V\u542c\u8d77\u6765\u662f\u4e00\u4efd\u5f88\u597d\u7684\u516c\u53f8\u3002\u53c8\u610f\u601d\u53c8\u5f88\u591a\u94b1\u3002
p7
(lp8
(L13L
V\u53c8\u610f\u601d
p9
V\u6709\u610f\u601d
p10
tp11
atp12
a(V\u56e0\u4e3a\u6211\u4e0b\u4e2a\u793c\u62dc\u6709\u5f88\u91cd\u8981\u7684\u8003\u8bd5\uff0c\u6240\u4ee5\u5f97\u8981\u597d\u597d\u5730\u590d\u4e60\u3002
p13
(lp14
tp15
a(V\u656c\u795d\u8eab\u4f53\u5efa\u6177\u3002
p16
(lp17
(L5L
V\u5efa\u6177
p18
V\u5065\u5eb7
p19
tp20
a(L6L
g18
g19
tp21
atp22
a(V\u6211\u5f88\u9ad8\u5174\u542c\u8bf4\u4f60\u5df2\u7ecf\u627e\u5230\u4e86\u5de5\u4f5c\u3002\u6211\u771f\u606d\u559c\u59b3\u963f\u3002
p23
(lp24
(L21L
V\u771f\u606d\u559c\u59b3\u963f
p25
V\u771f\u606d\u559c\u59b3\u554a
p26
tp27
atp28
a(V\u542c\u8bf4\u4f60\u51c6\u5907\u5f00\u4e00\u4e2a\u795d\u4f1a\uff0c\u90a3\u5929\u6211\u4e0d\u80fd\u8ddf\u4f60\u53c2\u52a0\u3002\u6211\u5f88\u62b1\u89c1\u963f\u3002
p29
(lp30
(L25L
V\u62b1\u89c1\u963f
p31
V\u62b1\u6b49\u554a
p32
tp33
a(L26L
g31
g32
tp34
atp35
a(V\u6211\u77e5\u9053\uff0c\u4f60\u5f88\u4e45\u4ee5\u524d\u627e\u5de5\u4f5c\u5f88\u5e78\u82e6\u3002
p36
(lp37
(L14L
V\u5e78\u82e6
p38
V\u8f9b\u82e6
p39
tp40
atp41
a(V\u6211\u5f88\u60f3\u53c2\u5bb6\u4f60\u7684\u821e\u4f1a\u56e0\u4e3a\u4f60\u7684\u821e\u4f1a\u603b\u662f\u5f88\u597d\u73a9\u3002
p42
(lp43
(L5L
V\u53c2\u5bb6
p44
V\u53c2\u52a0
p45
tp46
atp47
a(V\u6211\u4e0b\u4e2a\u661f\u671f\u975e\u5e38\u5fd9\u6240\u4ee5\u6211\u4e0d\u80fd\u53c2\u5bb6\u4f60\u7684\u821e\u4f1a\u3002
p48
(lp49
(L15L
V\u53c2\u5bb6
p50
V\u53c2\u52a0
p51
tp52
atp53
a(V\u6211\u4e0b\u4e2a\u661f\u671f\u5929\u6211\u5988\u5988\u56de\u6765\u53f0\u6e7e\u3002
p54
(lp55
(L10L
V\u56de\u6765\u53f0\u6e7e
p56
V\u4f1a\u6765\u53f0\u6e7e
p57
tp58
atp59
a(V\u56e0\u4e3a\u6211\u4e0d\u80fd\u53c2\u5bb6\u4f60\u7684\u821e\u4f1a\u6240\u4ee5\u6211\u8981\u8bf7\u4f60\u8ddf\u6211\u53bb\u5403\u665a\u996d\u518d\u770b\u7535\u5f71\u3002
p60
(lp61
(L7L
V\u53c2\u5bb6
p62
V\u53c2\u52a0
p63
tp64
atp65
a(V\u4f60\u7684\u5bb6\u4eba\u7684\u751f\u4f53\u597d\uff1f
p66
(lp67
(L6L
V\u751f\u4f53
p68
V\u8eab\u4f53
p69
tp70
atp71
a(V\u4f60\u5c0f\u7684\u65f6\u5019\u603b\u89c6\u770b\u4e86\u8fd9\u4e2a\u6742\u5fd7\uff0c\u6240\u4ee5\u6211\u5f88\u9ad8\u5174\u4f60\u53ef\u80fd\u627e\u5230\u8fd9\u4e2a\u5de5\u4f5c\uff01
p72
(lp73
(L7L
V\u603b\u89c6
p74
V\u603b\u662f
p75
tp76
atp77
a(V\u6211\u5e0c\u671b\u53ef\u80fd\u53c2\u52a0\u4f60\u7684\u665a\u4f1a\uff0c\u53ef\u662f\u4ed6\u7684\u751f\u4f53\u771f\u7684\u4e0d\u592a\u597d\uff01
p78
(lp79
(L17L
V\u751f\u4f53
p80
V\u8eab\u4f53
p81
tp82
atp83
a(V\u5bf9\u4e0d\u8d77\uff0c\u6211\u4e0d\u80fd\u53c2\u52a0\u4f60\u5f00\u7684\u5e86\u795d\u4f1a\uff0c\u56e0\u4e3a\u6211\u6709\u4e8b\u60c5\u3002\u4f46\u662f\u6211\u4e00\u5b9a\u9001\u7ed9\u4f60\u4e00\u628a\u5f88\u5927\u7684\u5316\u3002
p84
(lp85
(L37L
V\u4e00\u628a\u5f88\u5927\u7684\u5316
p86
V\u4e00\u628a\u5f88\u5927\u7684\u82b1
p87
tp88
atp89
a(V\u51fa\u4f60\uff1a\u4e07\u4e8b\u5982\u610f\uff0c\u8eab\u4f53\u5065\u5eb7\u3002
p90
(lp91
(L1L
V\u51fa\u4f60
p92
V\u795d\u4f60
p93
tp94
atp95
a(V\u6211\u89c9\u5f97\u4f60\u9ad8\u5fc3\u5f97\u4e0d\u5f97\u4e86\u3002
p96
(lp97
(L6L
V\u9ad8\u5fc3
p98
V\u9ad8\u5174
p99
tp100
atp101
a(V\u4f60\u627e\u5230\u4f60\u6700\u559c\u6b22\u7684\u5de5\u4f5c\uff0c\u6211\u4e5f\u5f88\u9ad8\u5fc3\u3002
p102
(lp103
(L16L
V\u9ad8\u5fc3
p104
V\u9ad8\u5174
p105
tp106
atp107
a(V\u6211\u8981\u5148\u8bf4\u4f60\u606d\u559c\u7684\u8bdd\uff0c\u5e94\u4e3a\u6211\u8005\u5230\u73b0\u5728\u5f88\u96be\u627e\u5230\u5de5\u4f5c\uff0c\u6240\u4ee5\u5f88\u68d2\u3002
p108
(lp109
(L11L
V\u5e94\u4e3a
p110
V\u56e0\u4e3a
p111
tp112
a(L14L
V\u8005\u5230
p113
V\u77e5\u9053
p114
tp115
a(L15L
g113
g114
tp116
atp117
a(V\u6211\u771f\u7684\u6d17\u7897\u6211\u53ef\u4ee5\u53bb\u770b\u4f60\u3002
p118
(lp119
(L4L
V\u6d17\u7897
p120
V\u5e0c\u671b
p121
tp122
a(L5L
g120
g121
tp123
atp124
a(V\u6211\u5988\u5988\u75c5\u4e86\uff0c\u6211\u7238\u7238\u8fc7\u4e16\u4e86\uff0c\u59b9\u59b9\u8ddf\u5979\u7684\u7537\u670b\u53cb\u9632\u5b88\u4e86\u3002
p125
(lp126
(L22L
V\u9632\u5b88
p127
V\u5206\u624b
p128
tp129
a(L23L
g127
g128
tp130
atp131
a(V\u5f20\u7231\u6587\u548c\u6797\u7f8e\u7f8e\u4e0d\u80fd\u4e00\u8d77\u53bb\u90a3\u7406\u3002
p132
(lp133
(L14L
V\u90a3\u7406
p134
V\u90a3\u91cc
p135
tp136
atp137
a(V\u6211\u4e0b\u4e86\u8bfe\u4ee5\u540e\uff0c\u5c31\u6839\u5979\u5750\u516c\u5171\u6c7d\u8f66\u4e00\u8d77\u56de\u5bb6\u3002
p138
(lp139
(L9L
V\u6839\u5979\u5750\u516c\u5171\u6c7d\u8f66
p140
V\u8ddf\u5979\u5750\u516c\u5171\u6c7d\u8f66
p141
tp142
atp143
a(V\u5468\u672b\u7684\u65f6\u5019\uff0c\u6211\u5e38\u5e38\u8ddf\u4ed6\u4e00\u8d77\u53bb\u770b\u7535\u5f71\u3002
p144
(lp145
tp146
a(V\u6628\u5929\u4ed6\u5199\u5f88\u591a\u516c\u514b\uff0c\u6240\u4ee5\u4eca\u5929\u4ed6\u5f88\u7d2f\u3002
p147
(lp148
(L7L
V\u516c\u514b
p149
V\u529f\u8bfe
p150
tp151
a(L8L
g149
g150
tp152
atp153
a(V\u770b\u7535\u5f71\u4ee5\u524d\uff0c\u5f20\u7231\u6587\u60f3\u6839\u6797\u7f8e\u7f8e\u53bb\u5403\u996d\u3002
p154
(lp155
(L11L
V\u6839\u6797\u7f8e\u7f8e\u53bb
p156
V\u8ddf\u6797\u7f8e\u7f8e\u53bb
p157
tp158
atp159
a(V\u4eca\u5929\u6211\u8ddf\u7f8e\u7f8e\u4e00\u8d77\u53bb\u770b\u4e00\u524d\u5979\u8981\u770b\u7684\u7535\u5f71\u3002
p160
(lp161
(L11L
V\u4e00\u524d
p162
V\u4ee5\u524d
p163
tp164
atp165
a(V\u5728\u5b66\u6821\u6797\u7f8e\u7f8e\u7684\u508d\u8fb9\u7684\u4f4d\u5b50\u662f\u5f20\u7231\u6587\u3002
p166
(lp167
(L8L
V\u508d\u8fb9
p168
V\u65c1\u8fb9
p169
tp170
atp171
a(V\u4e0a\u8bfe\u7684\u65f6\u5019\uff0c\u5f20\u7231\u6587\u95ee\u6797\u7f8e\u7f8e\u4e0b\u4e2a\u4ee5\u540e\u8981\u4e0d\u8981\u8ddf\u4ed6\u4e00\u8d77\u53bb\u770b\u7535\u5f71\u3002
p172
(lp173
(L15L
V\u4e0b\u4e2a
p174
V\u4e0b\u8bfe
p175
tp176
atp177
a(V\u4ed6\u662f\u5f88\u7528\u529f\u7684\u4eba\uff0c\u6240\u4ee5\u5f88\u603b\u660e\u3002
p178
(lp179
(L12L
V\u603b\u660e
p180
V\u806a\u660e
p181
tp182
atp183
a(V\u4eca\u5929\u5728\u4e0a\u8bfe\u5b66\u5230\u6700\u96be\u5f97\u8bfe\uff0c\u6211\u8ddf\u522b\u7684\u540c\u5b66\u4e5f\u89c9\u5f97\u672c\u6765\u662f\u8fd9\u6837\uff0c\u6211\u7684\u540c\u5b66\u4e0d\u592a\u61c2\uff0c\u6b63\u597d\u6211\u6628\u5929\u521a\u624d\u5ff5\u8fd9\u4e2a\u95ee\u9898\uff0c\u6240\u4ee5\u628a\u4ed6\u4e0d\u61c2\u7684\u95ee\u9898\u518d\u6559\u7ed9\u4ed6\u3002
p184
(lp185
(L10L
V\u6700\u96be\u5f97\u8bfe
p186
V\u6700\u96be\u7684\u8bfe
p187
tp188
atp189
a(V\u4e0b\u516c\u8f66\u7684\u65f6\u5019\uff0c\u65f6\u95f4\u5feb\u5230\u4e86\uff0c\u6211\u4eec\u53ea\u597d\u4e70\u5403\u7684\u4e1c\u897f\u5728\u9a6c\u4e0a\u53bb\u7535\u5f71\u9662\u3002
p190
(lp191
(L23L
V\u5728\u9a6c\u4e0a\u53bb
p192
V\u518d\u9a6c\u4e0a\u53bb
p193
tp194
atp195
a(V\u8981\u662f\u6211\u4eec\u4e0a\u8bfe\u7684\u65f6\u5019\u8bf4\u8bdd\uff0c\u6211\u7684\u8001\u5e08\u8bf4\u5bf9\u6211\u4eec\uff1a\u300c\u5efa\u5728\u4e0d\u5fc5\u8bf4\u8bdd\uff01\u300d
p196
(lp197
(L23L
V\u5efa\u5728
p198
V\u73b0\u5728
p199
tp200
atp201
a(V\u4e0b\u4e86\u8bfe\u6211\u6628\u5929\u5728\u5b66\u6821\u7684\u95e8\u53e3\u4e8b\u7b49\u6211\u5973\u670b\u53cb\u7684\uff0c\u5979\u53eb\u7f8e\u7f8e\u3002
p202
(lp203
(L13L
V\u4e8b\u7b49\u6211\u5973\u670b\u53cb\u7684
p204
V\u662f\u7b49\u6211\u5973\u670b\u53cb\u7684
p205
tp206
atp207
a(V\u7535\u5f71\u53eb\u300c\uff37\uff21\uff2c\uff2c\uff0d\uff25\u300d\uff0c\u6211\u89c9\u5f97\u662f\u5f88\u5ba2\u7231\u7684\u7535\u5f71\u3002
p208
(lp209
(L18L
V\u5ba2\u7231
p210
V\u53ef\u7231
p211
tp212
atp213
a(V\u7b2c\u4e00\u4e2a\u8c61\u7247\u513f\uff1a\u8fd9\u4e2a\u7537\u4eba\u521a\u8d77\u5e8a\u3002
p214
(lp215
(L4L
V\u8c61\u7247
p216
V\u76f8\u7247
p217
tp218
atp219
a(V\u4e5f\u96ea\u4eca\u5929\u4ed6\u4e0a\u8bfe\uff0c\u8fd8\u662f\u4ed6\u4e0a\u73ed\uff0c\u6211\u4e0d\u77e5\u9053\u3002
p220
(lp221
(L2L
V\u4e5f\u96ea
p222
V\u4e5f\u8bb8
p223
tp224
atp225
a(V\u4ed6\u7684\u5e8a\u5f88\u5c0f\uff0c\u662f\u84dd\u7684\u4e5f\u662f\u5f55\u7684\u3002
p226
(lp227
(L12L
V\u5f55\u7684
p228
V\u7eff\u7684
p229
tp230
atp231
a(V\u7b2c\u4e8c\u4e2a\u8c61\u7247\u513f\uff1a\u56db\u4e2a\u5b66\u751f\u90fd\u5728\u6559\u5ba4\u3002
p232
(lp233
(L4L
V\u8c61\u7247
p234
V\u76f8\u7247
p235
tp236
atp237
a(V\u7b2c\u4e09\u4e2a\u8c61\u7247\u513f\uff1a\u4e24\u4e2a\u4eba\u90fd\u5750\u516c\u5171\u6c7d\u8f66\u8fd8\u662f\u6628\u5750\u706b\u8f66\u3002
p238
(lp239
(L4L
V\u8c61\u7247
p240
V\u76f8\u7247
p241
tp242
atp243
a(V\u8c61\u7247\u513f\u91cc\u9762\u6709\u4e09\u5f20\u6905\u5b50\u3002
p244
(lp245
(L1L
V\u8c61\u7247
p246
V\u76f8\u7247
p247
tp248
atp249
a(V\u7b2c\u56db\u4e2a\u8c61\u7247\u513f\uff1a\u4e24\u4e2a\u4eba\u90fd\u770b\u70b9\u5f71\u3002
p250
(lp251
(L4L
V\u8c61\u7247
p252
V\u76f8\u7247
p253
tp254
a(L13L
V\u70b9\u5f71
p255
V\u7535\u5f71
p256
tp257
atp258
a(V\u6211\u89c9\u5f97\u8fd9\u4e9b\u4eba\u4e5f\u5728\u7b2c\u4e8c\u4e2a\u8c61\u7247\u513f\uff0c\u4e5f\u5728\u7b2c\u4e09\u4e2a\u8c61\u7247\u513f\u3002\u8fd9\u4e2a\u7537\u4eba\u4e5f\u5728\u7b2c\u4e00\u4e2a\u8c61\u7247\u513f\u3002\u8fd9\u4e24\u4eba\u662f\u670b\u53cb\u3002
p259
(lp260
(L12L
V\u8c61\u7247
p261
V\u76f8\u7247
p262
tp263
a(L21L
g261
g262
tp264
a(L34L
g261
g262
tp265
atp266
a(V\u6211\u7eb2\u6765\u5b66\u6821\u7684\u65f6\u5019\uff0c\u6797\u7f8e\u7f8e\u8bf7\u6211\u5e2e\u5979\u505a\u5979\u7684\u529f\u8bfe\u3002
p267
(lp268
(L2L
V\u7eb2\u6765
p269
V\u521a\u6765
p270
tp271
atp272
a(V\u4e0b\u5348\u56db\u70b9\uff0c\u6211\u8ddf\u6797\u5c0f\u59d0\u53bb\u8f66\u7ad9\uff0c\u8ba9\u540e\u5750\u8f66\u5230\u897f\u95e8\u53bb\u770b\u7535\u5f71\u3002
p273
(lp274
(L15L
V\u8ba9\u540e
p275
V\u7136\u540e
p276
tp277
atp278
a(V\u5979\u544a\u8bc9\u7231\u6587\uff1a\u5982\u679c\u4ed6\u5728\u665a\u4e0a\u559d\u9152\u4ed6\u7684\u751f\u4f53\u4e00\u5b9a\u4e0d\u592a\u597d\u3002
p279
(lp280
(L17L
V\u751f\u4f53
p281
V\u8eab\u4f53
p282
tp283
atp284
a(V\u4f60\u7684\u7238\u7238\u771f\u5f97\u662f\u574f\u4eba\uff01\u4ed6\u5e94\u8be5\u4e0d\u8ba9\u4f60\u559d\u9152\uff01
p285
(lp286
(L6L
V\u771f\u5f97\u662f\u574f\u4eba
p287
V\u771f\u7684\u662f\u574f\u4eba
p288
tp289
atp290
a(V\u5979\u63d0\u4ee5\u4ed6\u4eec\u4e94\u70b9\u665a\u4e0a\u53bb\u7535\u5f71\u9662\u770b\u4e00\u4e2a\u65b0\u7535\u5f71\uff0e
p291
(lp292
(L3L
V\u63d0\u4ee5
p293
V\u63d0\u8bae
p294
tp295
atp296
a(V\u56e0\u4e3a\u5927\u7684\u5bb6\u91cc\u5b66\u6821\u5f88\u8fdc\uff0c\u6240\u4ee5\u4ed6\u8981\u65e9\u4e00\u70b9\u8d77\u6765\u3002
p297
(lp298
(L3L
V\u5927\u7684\u5bb6
p299
V\u4ed6\u7684\u5bb6
p300
tp301
a(L6L
V\u91cc\u5b66\u6821\u5f88\u8fdc
p302
V\u79bb\u5b66\u6821\u5f88\u8fdc
p303
tp304
atp305
a(V\u4ed6\u4ece\u662f\u5750\u516c\u8f66\u53bb\u5b66\u6821\u3002
p306
(lp307
(L2L
V\u4ece\u662f
p308
V\u603b\u662f
p309
tp310
atp311
a(V\u4ed6\u4eec\u770b\u5f88\u6709\u5904\u7684\u7535\u5f71\uff0c\u56e0\u4e3a\u5927\u770b\u7740\u770b\u7740\u7b11\u8d77\u6765\u4e86\u3002
p312
(lp313
(L6L
V\u6709\u5904
p314
V\u6709\u8da3
p315
tp316
a(L13L
V\u5927\u770b\u7740\u770b\u7740\u7b11\u8d77\u6765\u4e86
p317
V\u4ed6\u770b\u7740\u770b\u7740\u7b11\u8d77\u6765\u4e86
p318
tp319
atp320
a(V\u6211\u6700\u559c\u6b22\u7684\u8bfe\u76ee\u662f\u6570\u5b66\u3002
p321
(lp322
(L6L
V\u8bfe\u76ee
p323
V\u79d1\u76ee
p324
tp325
atp326
a(V\u5230\u4e86\u5b66\u6821\u4e00\u540e\uff0c\u4ed6\u8ddf\u4ed6\u7684\u540c\u5b66\u4e00\u8d77\u4e0a\u6570\u5b66\u79d1\u3002
p327
(lp328
(L5L
V\u4e00\u540e
p329
V\u4ee5\u540e
p330
tp331
a(L19L
V\u6570\u5b66\u79d1
p332
V\u6570\u5b66\u8bfe
p333
tp334
atp335
a(V\u4ed6\u4eec\u8981\u770b\u5f97\u662f\u7f8e\u56fd\u7535\u5f71\u3002\u4ed6\u4eec\u89c9\u5f97\u5f88\u597d\u770b\uff0c\u6240\u4ee5\u4ed6\u4eec\u770b\u5b8c\u4e86\u4ee5\u540e\u51b3\u5b9a\u4e00\u5b9a\u8981\u4e70\u8fd9\u4e2a\u7535\u5f71\u7684\uff24\uff36\uff24\u4e86\u3002
p336
(lp337
(L5L
V\u770b\u5f97\u662f\u7f8e\u56fd\u7535\u5f71
p338
V\u770b\u7684\u662f\u7f8e\u56fd\u7535\u5f71
p339
tp340
atp341
a(V\u4ed6\u4eec\u4e00\u8d77\u5f88\u5174\u594b\u5f97\u804a\u804a\u5929\uff0c\u90fd\u4e0d\u5173\u5fc3\u8001\u5e08\u8bf4\u7684\u8bdd\u3002
p342
(lp343
(L8L
V\u5174\u594b\u5f97
p344
V\u5174\u594b\u5730
p345
tp346
atp347
a(V\u6240\u4ee5\u7231\u6587\u8ddf\u7f8e\u7f8e\u627e\u4e00\u627e\u63a7\u7684\u65f6\u95f4\uff0c\u4eca\u5929\u624d\u6765\u5f88\u5927\u7684\u7535\u5f71\u9662\u3002
p348
(lp349
(L11L
V\u63a7\u7684\u65f6\u95f4
p350
V\u7a7a\u7684\u65f6\u95f4
p351
tp352
atp353
a(V\u7535\u5f71\u771f\u7684\u4e0d\u9519\uff0c\u53ef\u662f\u7f8e\u7f8e\u7761\u4e86\u534a\u4e2a\u5c0f\u65f6\uff0c\u6240\u4ee5\u5185\u5bb9\u61c2\u4e0d\u6e05\u695a\u3002
p354
(lp355
(L23L
V\u5185\u5bb9\u61c2\u4e0d\u6e05\u695a
p356
V\u5185\u5bb9\u90fd\u4e0d\u6e05\u695a
p357
tp358
atp359
a(V\u8001\u5e08\u5c31\u7ed9\u4ed6\u4e24\u5f20\u7535\u5f71\u7968\uff0c\u8981\u4ed6\u8bf7\u4e00\u4e2a\u670b\u53cb\u8c0a\u8d77\u53bb\u770b\u3002
p360
(lp361
(L19L
V\u8c0a\u8d77
p362
V\u4e00\u8d77
p363
tp364
atp365
a(V\u56e0\u4e3a\u5979\u4e5f\u60f3\u770b\u8fd9\u90e8\u7535\u5f71\uff0c\u6240\u4ee5\u5979\u9a6c\u4e0a\u5c31\u56de\u7b54\u6211\uff1a\u300c\u597d\u554a\uff0c\u6211\u4e5f\u60f3\u770b\u8fd9\u90e8\u7535\u5f71\u3002\u300d\u6211\u4eec\u4e0b\u4e86\u8bfe\u5c31\u6253\u516c\u8f66\u53bb\u897f\u95e8\u753a\u3002
p366
(lp367
(L42L
V\u6253\u516c\u8f66
p368
V\u642d\u516c\u8f66
p369
tp370
atp371
a(V\u4e70\u4e86\u7968\u5c31\u8fd1\u53bb\u770b\u7535\u5f71\uff0c\u770b\u5b8c\u4e86\u6211\u4eec\u90fd\u89c9\u5f97\u8fd9\u90e8\u7535\u5f71\u5f88\u597d\u770b\u4e5f\u5f88\u597d\u7b11\uff0c\u6211\u4eec\u5f88\u559c\u6b22\u3002
p372
(lp373
(L5L
V\u8fd1\u53bb
p374
V\u8fdb\u53bb
p375
tp376
atp377
a(V\u56e0\u4e3a\u6211\u4eec\u770b\u7535\u5f71\u770b\u5230\u5f88\u665a\uff0c\u5973\u751f\u4e00\u4e2a\u4eba\u56de\u5bb6\u4e0d\u592a\u597d\uff0c\u6240\u4ee5\u6211\u53bb\u9001\u6797\u7f8e\u59b9\u56de\u5bb6\u6211\u624d\u56de\u5bb6\u3002
p378
(lp379
(L31L
V\u6797\u7f8e\u59b9
p380
V\u6797\u7f8e\u7f8e
p381
tp382
atp383
a(V\u4e0b\u4e86\u8bfe\u4ee5\u540e\uff0c\u4ed6\u8ddf\u6587\u7f8e\u5e38\u5e38\u89c1\u9762\u3002\u5e94\u4e3a\u6587\u7f8e\u662f\u4ed6\u7684\u597d\u670b\u53cb\u3002
p384
(lp385
(L16L
V\u5e94\u4e3a
p386
V\u56e0\u4e3a
p387
tp388
atp389
a(V\u4ed6\u4eec\u90fd\u5f88\u559c\u6b22\u770b\u5537\u610f\u601d\u7684\u7535\u5f71\u3002
p390
(lp391
(L8L
V\u5537\u610f\u601d
p392
V\u6709\u610f\u601d
p393
tp394
atp395
a(V\u6211\u4ece\u65e5\u672c\u4f1a\u628a\u4e00\u4e2a\u793c\u7269\u4e70\u4ece\u7ed9\u4f60\u3002
p396
(lp397
(L12L
V\u4ece\u7ed9\u4f60
p398
V\u9001\u7ed9\u4f60
p399
tp400
atp401
a(V\u672c\u6765\u6211\u6253\u7b97\u53bb\u4f60\u7684\u516c\u53f8\u8518\u52a0\uff0c\u53ef\u662f\u540e\u6765\u6211\u7684\u5bb6\u6709\u95ee\u9898\uff0c\u6240\u4ee5\u6211\u4e0d\u80fd\u53bb\u4e86\u3002
p402
(lp403
(L11L
V\u8518\u52a0
p404
V\u53c2\u52a0
p405
tp406
atp407
a(V\u6240\u4ee5\u6050\u6015\u6211\u4e0d\u80fd\u53c2\u52a0\u4f60\u7684\u6015\u5bf9\uff0c\u5bf9\u4e0d\u8d77\u554a\uff01
p408
(lp409
(L12L
V\u6015\u5bf9
p410
V\u6d3e\u5bf9
p411
tp412
atp413
a(V\u53ef\u662f\u4e0b\u4e2a\u793c\u62dc\u5982\u679c\u4f60\u6709\u7a7a\u6211\u60f3\u518d\u5f00\u4e00\u4e2a\u597d\u628a\uff1f
p414
(lp415
(L19L
V\u518d\u5f00\u4e00\u4e2a\u597d\u628a
p416
V\u518d\u5f00\u4e00\u4e2a\u597d\u5427
p417
tp418
atp419
a(V\u6211\u5988\u5988\u4f24\u75c5\u4e86\u6240\u4ee5\u6211\u5f97\u53bb\u770b\u4ed6\u3002
p420
(lp421
(L4L
V\u4f24\u75c5
p422
V\u751f\u75c5
p423
tp424
atp425
a(V\u606d\u559c\u606d\u559c\uff01\u4f60\u627e\u5230\u5de5\u4f5c\uff0c\u6211\u95e8\u4e5f\u5f88\u9ad8\u5174\u3002
p426
(lp427
(L13L
V\u6211\u95e8
p428
V\u6211\u4eec
p429
tp430
atp431
a(V\u6211\u77e5\u9053\u4e86\uff0c\u4ee5\u524d\u4f60\u6ca1\u5de5\u4f5c\u7684\u65f6\u5019\u5174\u8d77\u4e0d\u597d\u3002
p432
(lp433
(L15L
V\u5174\u8d77\u4e0d\u597d
p434
V\u5fc3\u60c5\u4e0d\u597d
p435
tp436
a(L16L
g434
g435
tp437
atp438
a(V\u6211\u542c\u8bf4\u4f60\u8981\u5f00\u4e00\u4e2a\u5e86\u795d\u5e86\u795d\u5730\u4f1a\uff0c\u53ef\u662f\u90a3\u5929\u6211\u6709\u4e00\u4ef6\u5f88\u91cd\u8981\u7684\u4e8b\u60c5\u4e00\u5b9a\u4e0d\u80fd\u53c2\u52a0\u3002
p439
(lp440
(L13L
V\u5e86\u795d\u5730\u4f1a
p441
V\u5e86\u795d\u7684\u4f1a
p442
tp443
atp444
a(V\u4e0b\u4e2a\u661f\u671f\u6211\u60f3\u4f60\u8ddf\u6211\u4e00\u8d77\u53bb\u4e00\u5bb6\u975e\u5e38\u6709\u540d\u7684\u996d\u5e97\uff0c\u5982\u679c\u6211\u4eec\u5728\u996d\u5e97\u5916\u9762\u5403\uff0c\u6211\u4eec\u53ef\u4ee5\u770b\u5230\u4e00\u4e2a\u6f02\u6f02\u4eae\u4eae\u5730\u98ce\u666f\u3002
p445
(lp446
(L46L
V\u6f02\u6f02\u4eae\u4eae\u5730\u98ce\u666f
p447
V\u6f02\u6f02\u4eae\u4eae\u7684\u98ce\u666f
p448
tp449
atp450
a(V\u6211\u8003\u5b8c\u8bd5\u4ee5\u540e\u3001\u518d\u5e86\u795d\u4e00\u6b21\u628a\uff01
p451
(lp452
(L13L
V\u518d\u5e86\u795d\u4e00\u6b21\u628a
p453
V\u518d\u5e86\u795d\u4e00\u6b21\u5427
p454
tp455
atp456
a(V\u8981\u662f\u4f60\u6709\u7a7a\uff0c\u6211\u4eec\u627e\u7684\u65f6\u95f4\u804a\u5427\uff01
p457
(lp458
(L10L
V\u627e\u7684\u65f6\u95f4
p459
V\u627e\u4e2a\u65f6\u95f4
p460
tp461
atp462
a(V\u56e0\u4e3a\u5e86\u795d\u4f1a\u90a3\u5929\u662f\u6211\u5988\u5988\u7684\u751f\u65e5\u3002\u6211\u8981\u53bb\u4e61\u4e0b\u95f4\u5988\u5988\u3002
p463
(lp464
(L21L
V\u95f4\u5988\u5988
p465
V\u89c1\u5988\u5988
p466
tp467
atp468
a(V\u6211\u5c31\u8981\u53c2\u5bb6\u4f60\u7684\u4f1a\uff0c\u53ef\u662f\u90a3\u4e2a\u5929\u6211\u8ddf\u6211\u7684\u5988\u5988\u548c\u7238\u7238\u8981\u53bb\u7f8e\u56e0\u770b\u89c1\u6211\u7684\u5f1f\u5f1f\u3002
p469
(lp470
(L5L
V\u53c2\u5bb6
p471
V\u53c2\u52a0
p472
tp473
a(L27L
V\u7f8e\u56e0
p474
V\u7f8e\u56fd
p475
tp476
atp477
a(V\u6211\u95e8\u6253\u7bf9\u5f88\u4e45\u8981\u53bb\u770b\u4ed6\uff0c\u6240\u4ee5\u6211\u4e0d\u53ef\u80fd\u53c2\u5bb6\u4f60\u7684\u4f1a\u3002
p478
(lp479
(L2L
V\u6211\u95e8
p480
V\u6211\u4eec
p481
tp482
a(L4L
V\u6253\u7bf9
p483
V\u6253\u7b97
p484
tp485
a(L19L
V\u53c2\u5bb6
p486
V\u53c2\u52a0
p487
tp488
atp489
a(V\u4f60\u8bf7\u6211\u53bb\u4f60\u7684\u65e0\u4f1a\u4ee5\u524d\uff0c\u6211\u539f\u6765\u8981\u53bb\u8ddf\u4f60\u4eec\u9759\u795d\u9759\u7af9\uff0c\u4e00\u5b9a\u5f88\u597d\u73a9\u3002
p490
(lp491
(L7L
V\u65e0\u4f1a
p492
V\u821e\u4f1a
p493
tp494
a(L20L
V\u9759\u795d\u9759\u7af9
p495
V\u5e86\u795d\u5e86\u795d
p496
tp497
a(L22L
g495
g496
tp498
a(L23L
g495
g496
tp499
atp500
a(V\u56e0\u4e3a\u6211\u4e0d\u80fd\uff0c\u6240\u4ee5\u6211\u51c6\u5907\u5c0f\u793c\u7269\uff0c\u89e3\u6211\u7684\u670b\u53cb\u9001\u7ed9\u4f60\u3002\u5e0c\u671b\u4f60\u559c\u6b22\u3002
p501
(lp502
(L16L
V\u89e3\u6211\u7684\u670b\u53cb
p503
V\u8bf7\u6211\u7684\u670b\u53cb
p504
tp505
atp506
a(V\u4f60\u7684\u65e5\u5b57\u90fd\u597d\u5417\uff1f\u6211\u5f88\u9ad8\u5174\u4f60\u627e\u5230\u4e86\u5de5\u4f5c\u554a\uff01
p507
(lp508
(L4L
V\u65e5\u5b57
p509
V\u65e5\u5b50
p510
tp511
atp512
a(V\u6211\u4f46\u7136\u53bb\u4e86\u770b\u533b\u751f\uff0c\u4ed6\u8bf4\u6ca1\u4ec0\u4e48\u5173\u7cfb\uff0c\u6211\u53ea\u9700\u8981\u4f11\u606f\u4e00\u4e0b\u3002
p513
(lp514
(L2L
V\u4f46\u7136
p515
V\u5f53\u7136
p516
tp517
atp518
a(V\u59b3\u7684\u670b\u53cb\uff0c\u969c\u7231\u6587\u3002
p519
(lp520
(L6L
V\u969c\u7231\u6587
p521
V\u5f20\u7231\u6587
p522
tp523
atp524
a(V\u6211\u672c\u6765\u60f3\u8981\u8ddf\u4f60\u4e00\u8d77\u53bb\uff0c\u53ef\u662f\u6700\u8fd1\u6211\u60f3\u5f97\u8d77\u6765\u6211\u5e94\u8be5\u505a\u4e00\u4ef6\u5f88\u91cd\u8981\u4e8b\uff0c\u6240\u4ee5\u5bf9\u4e0d\u8d77\u6211\u5df2\u5b9a\u4e0d\u80fd\u8ddf\u4f60\u4e00\u8d77\u53bb\u3002
p525
(lp526
(L38L
V\u5df2\u5b9a
p527
V\u4e00\u5b9a
p528
tp529
atp530
a(V\u6211\u77e5\u9053\u6709\u7684\u6211\u4eec\u7684\u6211\u4eec\u7684\u670b\u53cb\u53ef\u4ee5\u8ddf\u4f60\u4e00\u8d77\u53bb\uff0c\u6211\u53ef\u4ee5\u5e2e\u4f60\u95ee\u4ed6\u4eec\u6fb3\u662f\u4ed6\u4eec\u6709\u7a7a\u8ddf\u4f60\u4e00\u8d77\u53bb\u4f60\u8981\u5de5\u4f5c\u7684\u5730\u65b9\u3002
p531
(lp532
(L30L
V\u6fb3\u662f
p533
V\u8981\u662f
p534
tp535
atp536
a(V\u6211\u5f88\u613f\u610f\u53c2\u52a0\u53ef\u662f\u5e86\u795d\u4f1a\u7684\u65f6\u5019\u6211\u4eec\u7684\u516c\u53f8\u6709\u4e00\u4e2a\u91cd\u8981\u7684\u662f\u3002
p537
(lp538
(L26L
V\u91cd\u8981\u7684\u662f
p539
V\u91cd\u8981\u7684\u4e8b
p540
tp541
atp542
a(V\u957f\u7231\u6587\u5bf9\u5979\u5f88\u597d\uff0c\u56e0\u4e3a\u5979\u4eec\u90fd\u662f\u597d\u670b\u53cb\u3002
p543
(lp544
(L1L
V\u957f\u7231\u6587
p545
V\u5f20\u7231\u6587
p546
tp547
atp548
a(V\u957f\u7231\u6587\u4e5f\u9ad8\u5174\u5f97\u5f88\uff1a\u300c\u606d\u559c\uff0c\u606d\u559c\uff01\u6211\u4e5f\u60f3\u53bb\uff0c\u53ef\u662f\u6211\u51c6\u5907\u8003\u8bd5\uff0c\u6700\u8fd1\u6709\u70b9\u832b\uff0c\u6211\u6253\u7b97\u8005\u5199\u4e00\u4e9b\u5de5\u8bfe\uff0c\u6240\u4ee5\u6211\u660e\u5929\u4e0d\u77e5\u9053\u80fd\u4e0d\u80fd\u53c2\u52a0\u3002
p549
(lp550
(L1L
V\u957f\u7231\u6587
p551
V\u5f20\u7231\u6587
p552
tp553
a(L34L
V\u6709\u70b9\u832b
p554
V\u6709\u70b9\u5fd9
p555
tp556
a(L39L
V\u6253\u7b97\u8005
p557
V\u6253\u7b97\u7740
p558
tp559
a(L43L
V\u5de5\u8bfe
p560
V\u529f\u8bfe
p561
tp562
atp563
a(V\u6211\u89c9\u5f97\u4f60\u53ef\u4ee5\u8bf7\u4e00\u4e9b\u6211\u4eec\u540c\u5b66\u6765\u73a9\uff0c\u597d\u4e0d\u597d\uff1f\u6211\u5feb\u8981\u6709\u4e00\u4e9b\u7406\u7269\u9001\u7ed9\u4f60\u3002
p564
(lp565
(L27L
V\u7406\u7269
p566
V\u793c\u7269
p567
tp568
atp569
a(V\u6211\u6628\u5929\u4e0b\u4e86\u8bfe\u4ee5\u540e\uff0c\u5c31\u9a6c\u4e0a\u56de\u5bb6\u3001\u6d17\u8138\uff0c\u5ef6\u540e\u6253\u7b97\u81ea\u5df1\u505a\u996d\u3002
p570
(lp571
(L19L
V\u5ef6\u540e
p572
V\u7136\u540e
p573
tp574
atp575
a(V\u6211\u5f88\u7740\u6025\u5408\u95ee\u5979\u5f97\u5403\u836f\u5417\uff1f\u5979\u8bf4\u4e0d\u5fc5\u5403\u836f\uff0c\u53ef\u662f\u5e94\u8be5\u591a\u5403\u4e00\u70b9\u6c34\u679c\u3001\u591a\u559d\u4e00\u70b9\u3002
p576
(lp577
(L5L
V\u5408\u95ee\u5979
p578
V\u548c\u95ee\u5979
p579
tp580
atp581
a(V\u6211\u771f\u7684\u6068\u9ad8\u5174\u4f60\u5df2\u7ecf\u627e\u5230\u4e86\u4e00\u4efd\u5de5\u4f5c\u4e86\u3002
p582
(lp583
(L4L
V\u6068\u9ad8\u5174
p584
V\u5f88\u9ad8\u5174
p585
tp586
atp587
a(V\u4ed6\u5c4b\u5b50\u7684\u989c\u8272\u6bd4\u8f83\u5947\u602a\uff0c\u8ddf\u4e00\u4e2a\u533b\u9662\u5dee\u4e0d\u591a\u4e00\u8ba9\u3002
p588
(lp589
(L21L
V\u4e00\u8ba9
p590
V\u4e00\u6837
p591
tp592
atp593
a(V\u5f20\u5927\u6797\u662f\u4e00\u4e2a\u5f88\u597d\u7684\u5b66\u751f\uff0c\u4ed6\u53c8\u7528\u529f\u53c8\u806a\u660e\u3002\u4ed6\u5e38\u5e38\u5e2e\u522b\u7684\u5b66\u751f\u7684\u8292\u3002
p594
(lp595
(L30L
V\u5e2e\u522b\u7684\u5b66\u751f\u7684\u8292
p596
V\u5e2e\u522b\u7684\u5b66\u751f\u7684\u5fd9
p597
tp598
atp599
a(V\u4eca\u5929\u6ca1\u6709\u90a3\u4e48\u591a\u529f\u8bfe\uff0c\u6240\u4ee5\u4ed6\u6253\u7b97\u53eb\u5c0f\u59b9\u59b9\u8ddf\u4ed6\u4e00\u8d77\u53bb\u7535\u5f71\u9662\u3002
p600
(lp601
(L18L
V\u5c0f\u59b9\u59b9
p602
V\u5c0f\u7f8e\u7f8e
p603
tp604
a(L19L
g602
g603
tp605
atp606
a(V\u56de\u5bb6\u7684\u65f6\u5019\u4ed6\u4eec\u5750\u516c\u8f66\uff0c\u5f20\u5927\u6797\u7ad9\u7740\u6cbe\u7740\uff0c\u7136\u540e\u5c31\u95ee\u5979\u3002
p607
(lp608
(L17L
V\u6cbe\u7740
p609
V\u7ad9\u7740
p610
tp611
atp612
a(V\u4e0b\u8bfe\u4ee5\u540e\u4ed6\u8ddf\u6012\u670b\u53cb\u4e0a\u516c\u8f66\u5230\u522b\u7684\u5730\u65b9\u53bb\u3002\u516c\u8f66\u7406\u6ca1\u6709\u5750\u7684\u5730\u65b9\u6240\u4ee5\u4ed6\u4eec\u5f97\u7ad9\u7740\u53bb\u3002
p613
(lp614
(L7L
V\u6012\u670b\u53cb
p615
V\u5973\u670b\u53cb
p616
tp617
a(L22L
V\u516c\u8f66\u7406
p618
V\u516c\u8f66\u91cc
p619
tp620
atp621
a(V\u5c0f\u660e\u7684\u5973\u670b\u53cb\u89c9\u5f97\u8fd9\u4e2a\u7535\u5f71\u5f88\u6709\u8da3\uff0c\u4ed6\u89c9\u5f97\u8fd9\u4e2a\u7535\u5f71\u91cc\u7684\u4eba\u90fd\u5f88\u53ef\u7231\u3002\u53ef\u662f\u4e0b\u660e\u89c9\u5f97\u6709\u4e00\u70b9\u957f\uff0c\u90a3\u4e48\u957f\u4ed6\u7761\u7740\u4e86\u3002
p622
(lp623
(L34L
V\u4e0b\u660e
p624
V\u5c0f\u660e
p625
tp626
atp627
a(V\u4e0a\u8bfe\u7684\u65f6\u5019\uff0c\u8001\u5e08\u6587\u5b66\u751f\u5f88\u96be\u61c2\u5730\u95ee\u9898\u3002
p628
(lp629
(L9L
V\u8001\u5e08\u6587\u5b66\u751f
p630
V\u8001\u5e08\u95ee\u5b66\u751f
p631
tp632
a(L15L
V\u5f88\u96be\u61c2\u5730\u95ee\u9898
p633
V\u5f88\u96be\u61c2\u7684\u95ee\u9898
p634
tp635
atp636
a(V\u56e0\u4e3a\u7231\u7f8e\u662f\u6587\u5fb7\u7684\u6700\u7231\u7684\u670b\u53cb\uff0c\u6240\u4ee5\u4ed6\u6e05\u5979\u5403\u996d\u4ee5\u540e\u53bb\u770b\u4e00\u90e8\u7535\u5f71\u3002
p637
(lp638
(L18L
V\u4ed6\u6e05\u5979\u5403\u996d
p639
V\u4ed6\u8bf7\u5979\u5403\u996d
p640
tp641
atp642
a(V\u4ed6\u559c\u6b22\u7a7f\u84dd\u8272\u7684\u7761\u8863\u3001\u6234\u7740\u773c\u775b\u3002
p643
(lp644
(L14L
V\u773c\u775b
p645
V\u773c\u955c
p646
tp647
atp648
a(V\u5c0f\u5c0f\u8bf4\u5979\u5f88\u60f3\u8ddf\u4ed6\u4e00\u8d77\u770b\u7535\u5f71\uff0c\u53ef\u662f\u5979\u6709\u5f88\u591a\u529f\u8bfe\u5979\u8fd8\u6ca1\u4f5c\u6240\u4ee5\u5979\u7684\u7236\u6bcd\u4eca\u5929\u53ef\u80fd\u4e0d\u88ab\u5979\u51fa\u53bb\u3002
p649
(lp650
(L26L
V\u8fd8\u6ca1\u4f5c
p651
V\u8fd8\u6ca1\u505a
p652
tp653
atp654
a(V\u4e0b\u8bfe\u4ee5\u540e\u6211\u8ddf\u670b\u53cb\u4e00\u8d77\u5ea7\u516c\u8f66\uff0c\u6211\u4eec\u770b\u7535\u5f71\u3002
p655
(lp656
(L11L
V\u5ea7\u516c\u8f66
p657
V\u5750\u516c\u8f66
p658
tp659
atp660
a(V\u4ed6\u6bcf\u5929\u6bcf\u5929\u8d77\u5e8a\u516d\u70b9\u534a\u56e0\u4e3a\u4ed6\u7684\u5bb6\u79bb\u5927\u5b66\u5f88\u8fdc\uff0c\u53ef\u662f\u4ed6\u5f88\u7528\u7a7a\u6240\u4ee5\u4ed6\u89c9\u5f97\u6bcf\u5929\u5f88\u65e9\u8d77\u5e8a\u8ba9\u5979\u592a\u7d2f\u3002
p661
(lp662
(L27L
V\u7528\u7a7a
p663
V\u7528\u529f
p664
tp665
atp666
a(V\u4ed6\u6709\u4e00\u4e2a\u5973\u670b\u53cb\u53eb\u7f8e\u7f8e\u3002\u4ed6\u4eec\u4eca\u5929\u6253\u7bf9\u4e00\u8d77\u53bb\u770b\u7535\u5f71\u3002
p667
(lp668
(L17L
V\u6253\u7bf9
p669
V\u6253\u7b97
p670
tp671
atp672
a(V\u6bcf\u6bcf\u8981\u770b\u5916\u56fd\u7535\u5f71\uff0c\u6240\u4ee5\u6587\u5fb7\u4e70\u7968\u7ed9\u5979\u3002
p673
(lp674
(L2L
V\u6bcf\u6bcf
p675
V\u7f8e\u7f8e
p676
tp677
a(L1L
g675
g676
tp678
atp679
a(V\u6211\u4eca\u5929\u65e9\u4e0a\u516d\u70b9\u529e\u8d77\u6765\u4e86\u3002
p680
(lp681
(L8L
V\u516d\u70b9\u529e
p682
V\u516d\u70b9\u534a
p683
tp684
atp685
a(V\u5c0f\u7f8e\u8ddf\u6211\u4e00\u6837\u5927\uff0c\u53ef\u662f\u6cbe\u8d77\u6765\u7684\u65f6\u5019\u6211\u6bd4\u5979\u9ad8\u3002
p686
(lp687
(L11L
V\u6cbe\u8d77\u6765
p688
V\u7ad9\u8d77\u6765
p689
tp690
atp691
a(V\u4e0b\u4e86\u8bfe\u6211\u4eec\u5e38\u5e38\u4ee5\u8d77\u5750\u516c\u8f66\u3002\u4eca\u5929\u6211\u4eec\u4e5f\u4ee5\u5757\u53bb\u4e86\u3002
p692
(lp693
(L8L
V\u4ee5\u8d77
p694
V\u4e00\u8d77
p695
tp696
a(L19L
V\u4ee5\u5757
p697
V\u4e00\u5757
p698
tp699
atp700
a(V\u73b0\u5728\u65e9\u4e0a\u516d\u70b9\u534a\uff0c\u8fd9\u4e2a\u7537\u5b69\u5b50\u518d\u8d77\u5e8a\u5462\u3002
p701
(lp702
(L14L
V\u518d\u8d77\u5e8a\u5462
p703
V\u5728\u8d77\u5e8a\u5462
p704
tp705
atp706
a(V\u4e0a\u8bfe\u7684\u65f6\u5019\u6709\u4e00\u4e2a\u5b66\u751f\u4e0d\u61c2\u518d\u9ed1\u677f\u5199\u7684\u4e1c\u897f\uff0c\u4ed6\u7684\u540c\u5b66\u628a\u8fd9\u4e9b\u4e1c\u897f\u6559\u4ed6\u3002
p707
(lp708
(L13L
V\u518d\u9ed1\u677f\u5199\u7684\u4e1c\u897f
p709
V\u5728\u9ed1\u677f\u5199\u7684\u4e1c\u897f
p710
tp711
atp712
a(V\u4ed6\u7684\u597d\u670b\u53cb\u53eb\u6587\u5f97\uff0c\u4ed6\u4eec\u5e38\u5e38\u4e0b\u53ef\u4ee5\u540e\u4e00\u8d77\u53bb\u770b\u7535\u5f71\u3002
p713
(lp714
(L15L
V\u4e0b\u53ef
p715
V\u4e0b\u8bfe
p716
tp717
atp718
a(V\u533b\u751f\u8ddf\u4ed6\u8bf4\uff1a\u4f60\u4e00\u5b9a\u6700\u5c11\u6bcf\u4e2a\u661f\u671f\u8fd0\u52a8\u4e24\u6b21\uff0c\u8981\u4e0d\u7136\u4f60\u7684\u8eab\u4f53\u4e0d\u8f93\u670d\uff0c\u4f60\u7684\u5934\u4f1a\u5bb9\u6613\u75bc\u3002
p719
(lp720
(L29L
V\u4e0d\u8f93\u670d
p721
V\u4e0d\u8212\u670d
p722
tp723
atp724
a(V\u4eca\u5929\u4ed6\u5f88\u54e9\uff0c\u4e0d\u8fc7\u6709\u51e0\u4e2a\u5f88\u91cd\u8981\u7684\u8003\u8bd5\uff0c\u4ed6\u975e\u53ca\u683c\u4e0d\u53ef\u3002
p725
(lp726
(L5L
V\u5f88\u54e9
p727
V\u5f88\u7d2f
p728
tp729
atp730
a(V\u5176\u662f\u78b0\u5230\u56f0\u96be\u7684\u65f6\u5019\u540c\u5b66\u603b\u662f\u8bf7\u4ed6\u5e2e\u4ed6\u4eec\u5199\u529f\u8bfe\uff0c\u4e0b\u8bfe\u4ee5\u540e\u5e38\u5e38\u628a\u5b66\u6821\u7684\u4e8b\u4e00\u8d77\u8ba8\u8bba\u3002
p731
(lp732
(L2L
V\u5176\u662f
p733
V\u5176\u5b9e
p734
tp735
atp736
a(V\u4ed6\u7684\u8001\u5e08\u4e5f\u89c9\u7684\u4ed6\u8fd8\u662f\u806a\u660e\uff0c\u9f13\u52b1\u4ed6\u9ad8\u4e2d\u6bd5\u4e1a\u4ee5\u540e\u5728\u5f88\u6709\u540d\u7684\u5927\u5b66\u5ff5\u4e66\u3002
p737
(lp738
(L7L
V\u89c9\u7684
p739
V\u89c9\u5f97
p740
tp741
atp742
a(V\u5c0f\u738b\u4eca\u5929\u8ddf\u590f\u7f8e\u6709\u7ea6\u4f1a\u3002\u4ed6\u5f88\u8b66\u5f20\uff0c\u6240\u4ee5\u4ed6\u4eca\u5929\u516d\u70b9\u534a\u5c31\u8d77\u5e8a\u4e86\u3002
p743
(lp744
(L14L
V\u8b66\u5f20
p745
V\u7d27\u5f20
p746
tp747
atp748
a(V\u4ed6\u5df2\u7ecf\u8ddf\u8001\u5e08\u8bf4\u4e86\u4ed6\u4ece\u6628\u5929\u4f1a\u5f00\u59cb\u7528\u529f\uff0c\u5176\u5b9e\u8001\u5e08\u4e0d\u5728\u6559\u5ba4\u91cc\u7684\u8bdd\u4ed6\u4e00\u76f4\u8ddf\u540c\u5b66\u52b3\u5929\uff0c\u5750\u4e0d\u4f4f\uff0c\u4e5f\u4e0d\u8ba4\u771f\u3002
p749
(lp750
(L36L
V\u52b3\u5929
p751
V\u804a\u5929
p752
tp753
atp754
a(V\u4ed6\u4eec\u73a9\u5f97\u5f88\u9ad8\u5174\uff0c\u5c0f\u738b\u56de\u6765\u7684\u65f6\u5019\u5c31\u89c9\u5f97\u5f88\u6765\uff0c\u6240\u4ee5\u4ed6\u6d17\u6fa1\u4e86\u5c31\u53bb\u5b66\u6559\u3002
p755
(lp756
(L20L
V\u5f88\u6765
p757
V\u5f88\u7d2f
p758
tp759
a(L30L
V\u5b66\u6559
p760
V\u7761\u89c9
p761
tp762
a(L31L
g760
g761
tp763
atp764
a(V\u4ed6\u7684\u73ed\u6709\u4e00\u4f4d\u738b\u5927\u660e\u559c\u6b22\u7684\u4eba\uff0c\u53ef\u662f\u5979\u8fd8\u4e0d\u77e5\u9053\uff1a\u8fd9\u662f\u738b\u5927\u660e\u7684\u7c73\u7c73\uff01
p765
(lp766
(L29L
V\u7c73\u7c73
p767
V\u79d8\u5bc6
p768
tp769
a(L30L
g767
g768
tp770
atp771
a(V\u770b\u7740\u7535\u5f71\uff0c\u5927\u540d\u8981\u8bf4\u7ed9\u4ed6\u77e5\u9053\u5979\u5f88\u559c\u6b22\u5979\uff0c\u6240\u4ee5\u4ed6\u73b0\u5728\u4e0d\u8981\u53bb\u4e0a\u8bfe\uff0c\u5c31\u8981\u53bb\u7535\u5f71\u9662\u3002
p772
(lp773
(L7L
V\u5927\u540d
p774
V\u5927\u660e
p775
tp776
atp777
a(V\u4e0b\u8bfe\u4e86\u4ee5\u540e\u5b66\u751f\u591a\u8981\u505a\u516c\u8f66\u56de\u5bb6\uff0c\u5728\u516c\u8f66\u4e0a\u5c0f\u767d\u5750\u4e0d\u4e0b\u4e86\u6240\u4ee5\u4ed6\u5f97\u7ad9\u7740\u56de\u5bb6\uff0c\u5bf9\u4ed6\u6765\u8bf4\u5f88\u7d2f\u53ef\u662f\u6ca1\u529e\u6cd5\u3002
p778
(lp779
(L8L
V\u591a\u8981
p780
V\u90fd\u8981
p781
tp782
a(L10L
V\u505a\u516c\u8f66
p783
V\u5750\u516c\u8f66
p784
tp785
atp786
a(V\u4ed6\u7ad9\u5728\u516c\u8f66\u4e0a\u7ad9\u7740\u6cbe\u7740\uff0c\u5ffd\u7136\u4e00\u4e2a\u5974\u751f\u53eb\u4ed6\u5728\u5979\u7684\u6905\u5b50\u5750\u4e00\u4e0b\u3002
p787
(lp788
(L9L
V\u6cbe\u7740
p789
V\u7ad9\u7740
p790
tp791
a(L16L
V\u5974\u751f
p792
V\u5973\u751f
p793
tp794
atp795
a(V\u770b\u4e86\u5f88\u597d\u770b\u7684\u7535\u5f71\u4ed6\u56de\u5bb6\u4e86\uff0c\u53ef\u662f\u4ed6\u88ab\u5988\u5988\u4ed6\u4e86\u3002
p796
(lp797
(L20L
V\u4ed6\u4e86
p798
V\u9a82\u4e86
p799
tp800
atp801
a(V\u53ef\u662f\u4ed6\u89c9\u5f97\u6ca1\u5173\u7cfb\u56e0\u4e3a\u73b0\u5728\u4ed6\u6709\u5974\u670b\u53cb\u3002
p802
(lp803
(L15L
V\u5974\u670b\u53cb
p804
V\u5973\u670b\u53cb
p805
tp806
atp807
a(V\u9a6c\u82f1\u4e5d\u7684\u4e2d\u5b66\u7ed9\u5b66\u751f\u5f88\u4ed6\u7684\u56f0\u96be\uff0c\u4f46\u9a6c\u82f1\u4e5d\u89c9\u5f97\u6ca1\u5173\u7cfb\u3002
p808
(lp809
(L11L
V\u5f88\u4ed6
p810
V\u5f88\u591a
p811
tp812
atp813
a(V\u4ed6\u4eec\u6b63\u5728\u8fd8\u5728\u7535\u5f71\u9662\u4e00\u8fb9\u770b\u7535\u5f71\u4e00\u8fb9\u804a\u5929\uff0c\u9ad8\u5174\u7684\u4e0d\u5f97\u4e86\u3002
p814
(lp815
(L22L
V\u9ad8\u5174\u7684\u4e0d\u5f97\u4e86
p816
V\u9ad8\u5174\u5f97\u4e0d\u5f97\u4e86
p817
tp818
atp819
a(V\u4ed6\u8ddf\u540c\u5b66\u5728\u8ba8\u8bba\uff0c\u524d\u9762\u5728\u9ed1\u677f\u4e0a\u6709\u6570\u5b66\u7684\u5171\u8bc6\u3002
p820
(lp821
(L19L
V\u5171\u8bc6
p822
V\u516c\u5f0f
p823
tp824
a(L20L
g822
g823
tp825
atp826
a(V\u56e0\u4e3a\u6211\u6709\u8fd1\u89c6\uff0c\u6240\u4ee5\u4e0a\u8bfe\u7684\u65f6\u5019\u5c31\u5ea7\u5728\u6559\u5ba4\u7684\u524d\u9762\uff0c\u8981\u4e0d\u7136\u8001\u5e08\u5199\u7684\u5b57\u90fd\u4f1a\u770b\u4e0d\u6e05\u695a\u3002
p827
(lp828
(L16L
V\u5ea7\u5728
p829
V\u5750\u5728
p830
tp831
atp832
a(V\u6211\u7684\u5bb6\u91cc\u5b66\u6821\u5f88\u8fd1\uff0c\u6240\u4ee5\u6211\u5e38\u8d70\u8def\u53bb\u5b66\u6821\u5b66\u4e60\uff0c\u8d70\u8def\u5927\u6982\u5341\u5206\u949f\u5c31\u5230\u4e86\u3002
p833
(lp834
(L4L
V\u91cc\u5b66\u6821\u5f88\u8fd1
p835
V\u79bb\u5b66\u6821\u5f88\u8fd1
p836
tp837
atp838
a(V\u6709\u65f6\u5019\u6211\u5ff5\u4e66\uff0c\u6709\u65f6\u5019\u6211\u542c\u97f3\u9fa0\u3002
p839
(lp840
(L14L
V\u97f3\u9fa0
p841
V\u97f3\u4e50
p842
tp843
atp844
a(V\u4e0b\u5348\u4e8c\u70b9\u4e8c\u5341\u5206\uff0c\u6211\u4eec\u4e0a\u8bfe\uff0c\u4e0b\u5348\u5b66\u5f88\u591a\u5b57\u5408\u5531\u7236\u7cfb\u8bed\u6cd5\uff0c\u6240\u4ee5\u6211\u4eec\u5e38\u89c9\u5f97\u6709\u4e00\u70b9\u7d2f\u3002
p845
(lp846
(L20L
V\u5408\u5531\u7236\u7cfb\u8bed\u6cd5
p847
V\u548c\u5e38\u590d\u4e60\u8bed\u6cd5
p848
tp849
a(L21L
g847
g848
tp850
a(L22L
g847
g848
tp851
a(L23L
g847
g848
tp852
atp853
a(V\u8001\u5e08\u5e38\u8bf4\uff1a\u4e0a\u8bfe\u91cc\u9762\uff0c\u522b\u7a0e\u89c9\u3002\u6240\u4ee5\u6211\u4eec\u5e38\u89c9\u5f97\u6709\u4e00\u70b9\u7d2f\u3002
p854
(lp855
(L12L
V\u7a0e\u89c9
p856
V\u7761\u89c9
p857
tp858
atp859
a(V\u56e0\u4e3a\u6211\u4eec\u90fd\u89c9\u5f97\u8d30\uff0c\u6240\u4ee5\u5403\u74dc\u5821\u89c9\u5f97\u5f88\u597d\u5403\u3002
p860
(lp861
(L8L
V\u89c9\u5f97\u8d30
p862
V\u89c9\u5f97\u997f
p863
tp864
atp865
a(V\u5c0f\u738b\u95ee\u5979\uff1a\u300c\u5bf9\u4e0d\u6c14\uff0c\u4f60\u53eb\u4ec0\u4e48\u540d\u5b57\uff1f\u300d
p866
(lp867
(L9L
V\u5bf9\u4e0d\u6c14
p868
V\u5bf9\u4e0d\u8d77
p869
tp870
atp871
a(V\u6d77\uff01\u6211\u8981\u544a\u8bc9\u4f60\u4e00\u4e2a\u6545\u4e8b\u3002
p872
(lp873
(L1L
V\u6d77
p874
V\u55e8
p875
tp876
atp877
a(V\u4eca\u5929\u738b\u4e0a\u6211\u8981\u8ddf\u4f60\u5f88\u91cd\u8981\u7684\u4e8b\u60c5\u8c08\u4e00\u8c08\u3002
p878
(lp879
(L3L
V\u4eca\u5929\u738b\u4e0a
p880
V\u4eca\u5929\u665a\u4e0a
p881
tp882
atp883
a(V\u4e0b\u4e2a\u661f\u671f\u4e94\u662f\u6211\u7684\u751f\u65e5\uff0c\u6240\u4ee5\u6211\u8981\u5f00\u4e00\u4e2a\u65e0\u4f1a\u3002
p884
(lp885
(L19L
V\u65e0\u4f1a
p886
V\u821e\u4f1a
p887
tp888
atp889
a(V\u5982\u679c\u4f60\u6709\u7a7a\uff0c\u6211\u60f3\u8fd9\u4e2a\u793c\u62dc\u4e94\u60c5\u4f60\u53bb\u5403\u996d\u3002
p890
(lp891
(L14L
V\u60c5\u4f60\u53bb\u5403\u996d
p892
V\u8bf7\u4f60\u53bb\u5403\u996d
p893
tp894
atp895
a(V\u6211\u4e0d\u5c40\u9053\u4f60\u8981\u5403\u4ec0\u4e48\u83dc\uff0c\u53ef\u662f\u6211\u89c9\u5f97\u4e2d\u56fd\u83dc\u5f88\u597d\u3002
p896
(lp897
(L3L
V\u4e0d\u5c40\u9053
p898
V\u4e0d\u77e5\u9053
p899
tp900
atp901
a(V\u8981\u662f\u4f60\u592a\u5fd9\u6ca1\u5173\u7cfb\uff01\u6211\u603b\u662f\u8bf7\u4f60\u5403\u996d\u3002
p902
(lp903
tp904
a(V\u738b\u5929\u534e\uff0c\u4f60\u597d\u9a6c\uff1f
p905
(lp906
(L7L
V\u4f60\u597d\u9a6c
p907
V\u4f60\u597d\u5417
p908
tp909
atp910
a(V\u6211\u89c9\u5f97\u65e5\u672c\u996d\u9986\u513f\u5728\u5e08\u5927\u8def\u4e0d\u9519\u4e5f\u65b9\u4fbf\uff0c\u56e0\u4e3a\u79bb\u5b66\u6821\u5f88\u8fd1\uff0c\u6240\u4ee5\u6211\u89c9\u5f97\u4ed6\u5bb6\u90fd\u80fd\u53c2\u52a0\u3002
p911
(lp912
(L32L
V\u4ed6\u5bb6
p913
V\u5927\u5bb6
p914
tp915
atp916
a(V\u4f60\u89c9\u5f97\u5c91\u4e48\u6837\uff1f\u4f60\u80fd\u53c2\u52a0\u9a6c\uff1f\u8981\u662f\u4f60\u80fd\u53c2\u52a0\u8bf7\u4f60\u6253\u7535\u8bdd\u7ed9\u6211\u3002
p917
(lp918
(L4L
V\u5c91\u4e48\u6837
p919
V\u600e\u4e48\u6837
p920
tp921
a(L12L
V\u4f60\u80fd\u53c2\u52a0\u9a6c
p922
V\u4f60\u80fd\u53c2\u52a0\u5417
p923
tp924
atp925
a(V\u6211\u4eec\u7ea6\u5728\u53f0\u5317\uff11\uff10\uff11\u524d\u9762\uff0c\u597d\u4e0d\u597d\uff1f\u516d\u70b9\u53ef\u4ee5\u9a6c\uff1f\u8bf7\u4f60\u661f\u671f\u516d\u4ee5\u524d\u7ed9\u6211\u6253\u7535\u8bdd\u3002
p926
(lp927
(L21L
V\u53ef\u4ee5\u9a6c
p928
V\u53ef\u4ee5\u5417
p929
tp930
atp931
a(V\u4e0a\u4e2a\u661f\u671f\u4f60\u8bf7\u5ba2\uff0c\u6240\u4ee5\u660e\u5929\u6211\u60f3\u60c5\u4f60\u53bb\u4e00\u5bb6\u6cd5\u56fd\u9910\u5385\u5403\u6cd5\u56fd\u83dc\u3002
p932
(lp933
(L15L
V\u6211\u60f3\u60c5\u4f60
p934
V\u6211\u60f3\u8bf7\u4f60
p935
tp936
atp937
a(V\u661f\u671f\u516d\u6211\u6709\u7a7a\u6240\u4ee5\u6211\u89c9\u5f97\u516b\u70b9\u534a\u6211\u8ddf\u4f60\u53ef\u4ee5\u89c1\u9762\uff0c\u6240\u4ee5\u6211\u4eec\u4f1a\u89c1\u9762\u5728\u5fe0\u5b5d\u6566\u5316\u706b\u8005\u7ad9\uff13\u51fa\u53e3\u3002
p938
(lp939
(L36L
V\u706b\u8005\u7ad9
p940
V\u706b\u8f66\u7ad9
p941
tp942
atp943
a(V\u6211\u8ddf\u4f60\u53bb\u5403\u53f0\u6e7e\u5348\u996d\uff0c\u6b22\u8fce\u4f60\u8ddf\u6211\u6765\uff01
p944
(lp945
(L8L
V\u5348\u996d
p946
V\u665a\u996d
p947
tp948
atp949
a(V\u5979\u662f\u6765\u4e8b\u5927\u540e\u770b\u5230\u8fd9\u4e2a\u5c0f\u59d0\u662f\u4ed6\u7684\u8001\u5e08\u3002
p950
(lp951
(L4L
V\u4e8b\u5927
p952
V\u5e08\u5927
p953
tp954
atp955
a(V\u96be\u602a\u4ed6\u7684\u82f1\u6587\u8fd9\u4e48\u597d\uff01\u4ed6\u4eec\u804a\u4f53\u4e00\u70b9\u5c31\u4e0a\u8bfe\u3002
p956
(lp957
(L14L
V\u804a\u4f53
p958
V\u804a\u5929
p959
tp960
atp961
a(V\u4ed6\u4eec\u5f00\u59cb\u5b66\u4e2d\u6587\uff0c\u4e00\u5b9a\u6700\u524d\u7684\u5b50\uff02\u4f60\u597d\uff02\u3002
p962
(lp963
(L14L
V\u6700\u524d\u7684\u5b50
p964
V\u6700\u524d\u7684\u5b57
p965
tp966
atp967
a(V\u5e78\u4e8f\u6ca1\u6709\u4e00\u4e2a\u53f0\u6e7e\u4eba\u4e0d\u4f1a\u5f88\u70ed\u5fc3\u5730\u5e2e\u52a9\u672c\u672c\u7684\u8001\u5916\u627e\u5230\u5e08\u5927\u56fd\u8bed\u6559\u5b66\u4e2d\u5fc3\uff0c\u8981\u4e0d\u7136\u5e08\u5927\u56fd\u8bed\u6559\u5b66\u4e2d\u5fc3\u5c31\u6ca1\u6709\u5b66\u751f\uff0c\u518d\u8bf4\u4e0d\u80fd\u8d5a\u94b1\u3002
p968
(lp969
(L18L
V\u672c\u672c\u7684
p970
V\u7b28\u7b28\u7684
p971
tp972
a(L19L
g970
g971
tp973
atp974
a(V\u6211\u4ece\u6211\u7684\u5bb6\u53bb\u6377\u8fd0\u7ad9\uff0c\u5ea7\u6377\u8fd0\u5230\u4e86\u6377\u8fd0\u53e4\u4ead\u7ad9\uff0c\u6211\u8ff7\u8def\u4e86\u56e0\u4e3a\u6211\u9009\u4e0d\u5bf9\u7684\u51fa\u53e3\u51fa\u53bb\u3002
p975
(lp976
(L11L
V\u5ea7\u6377\u8fd0
p977
V\u5750\u6377\u8fd0
p978
tp979
atp980
a(V\u4ed6\u4f4f\u5728\u5fe0\u5b5d\u65b0\u751f\u6377\u8fd0\u7ad9\u7684\u9644\u8fd1\uff0c\u4ed6\u8bfb\u4e66\u5728\u5e08\u5927\u6240\u4ee5\u4ed6\u5f97\u5750\u6377\u8fd0\u5230\u53f0\u7535\u5927\u697c\u4e0b\u8f66\uff0c\u8d70\u7740\u8d70\u7740\u5c31\u8ff7\u8def\u4e86\uff0c\u4ed6\u5b8c\u5168\u4e0d\u77e5\u9053\u4ed6\u5728\u54ea\u54e9\u3002
p981
(lp982
(L54L
V\u54ea\u54e9
p983
V\u54ea\u91cc
p984
tp985
atp986
a(V\u8fd9\u4f4d\u5c0f\u59d0\u8bf4\uff1a\u4f60\u5e94\u8be5\u4e00\u76f4\u8d70\u5230\u5341\u53ea\u8def\u53e3\uff0c\u518d\u53f3\u7816\u4e00\u76f4\u8d70\u7ecf\u8fc7\u4e00\u5bb6\u94f6\u884c\u5c31\u5230\u4e86\u3002
p987
(lp988
(L15L
V\u5341\u53ea\u8def\u53e3
p989
V\u5341\u5b57\u8def\u53e3
p990
tp991
a(L21L
V\u53f3\u7816
p992
V\u53f3\u8f6c
p993
tp994
atp995
a(V\u5e94\u4e3a\u4eca\u5929\u662f\u7b2c\u4e00\u5929\uff0c\u8001\u5e08\u5148\u8bf7\u5b66\u751f\u81ea\u5df1\u7ed9\u4ecb\u7ecd\u3002
p996
(lp997
(L1L
V\u5e94\u4e3a
p998
V\u56e0\u4e3a
p999
tp1000
atp1001
a(V\u4ed6\u95ee\u7528\u82f1\u6587\u300c\u53f0\u6e7e\u5927\u5b66\u5728\u54ea\u54e9\uff1f\u300d\u5979\u5f88\u5ba2\u6c14\uff0c\u8fd8\u6709\u4f1a\u8bf4\u82f1\u6587\u3002
p1002
(lp1003
(L13L
V\u54ea\u54e9
p1004
V\u54ea\u91cc
p1005
tp1006
atp1007
a(V\u4e00\u4e2a\u5c0f\u59d0\u53eb\u4ed6\u600e\u4e48\u53bb\uff0c\u5979\u8ddf\u4ed6\u8bf4\u300c\u8fd9\u91cc\u79bb\u5927\u5b66\u5f88\u8fdc\uff0c\u4f60\u6700\u597d\u8981\u5750\u516c\u8f66\u3002\u300d
p1008
(lp1009
(L5L
V\u53eb\u4ed6
p1010
V\u6559\u4ed6
p1011
tp1012
atp1013
a(V\u53ea\u6709\u4e00\u4e2a\u662f\u8ba9\u4ed6\u4e0d\u613f\u610f\u662f\u53f0\u5317\u4eba\u7528\u90a3\u4e48\u6469\u6a21\u6258\u8f66\uff0c\u6240\u4ee5\u770b\u8d77\u6765\u7a7a\u6c14\u6709\u4e00\u70b9\u8ba9\u3002
p1014
(lp1015
(L33L
V\u6709\u4e00\u70b9\u8ba9
p1016
V\u6709\u4e00\u70b9\u810f
p1017
tp1018
atp1019
a(V\u90a3\u662f\uff0c\u6709\u4e00\u4e2a\u5c0f\u59d0\u8d70\u8fdb\u6765\uff0c\u4ed6\u5c31\u628a\u4e00\u5f20\u5730\u56fe\u62ff\u8fc7\u8fd9\u4f4d\u5c0f\u59d0\u95ee\u8def\u3002
p1020
(lp1021
(L2L
V\u90a3\u662f
p1022
V\u90a3\u65f6
p1023
tp1024
atp1025
a(V\u8fd9\u4f4d\u5c0f\u59d0\u5f88\u5ba2\u6c14\u5c31\u544a\u8bc9\u4ed6\u4ece\u8fd9\u7406\u5230\u5b66\u6821\u600e\u4e48\u53bb\uff0c\u5f88\u7b80\u5355\uff0c\u53ea\u8981\u4ece\u8fd9\u7406\u5f80\u4e00\u76f4\u8d70\uff0c\u7ecf\u8fc7\u4e24\u7b2c\u8def\u53e3\uff0c\u8d70\u8def\u5927\u6982\u5341\u4e94\u5206\u949f\u5c31\u5230\u4e86\u3002
p1026
(lp1027
(L14L
V\u8fd9\u7406
p1028
V\u8fd9\u91cc
p1029
tp1030
a(L30L
g1028
g1029
tp1031
atp1032
a(V\u8001\u5e08\u4ecb\u7ecd\u81ea\u5df1\uff0c\u7136\u540e\u8981\u6551\u4ed6\u5bb6\u8f6e\u6d41\u4ecb\u7ecd\u3002
p1033
(lp1034
(L11L
V\u6551\u4ed6\u5bb6
p1035
V\u53eb\u5927\u5bb6
p1036
tp1037
a(L12L
g1035
g1036
tp1038
atp1039
a(V\u8001\u5e08\u544a\u8bc9\u6797\u8fbe\u94ed\u8bf4\u4e00\u6b21\uff0c\u7136\u540e\u8001\u662f\u628a\u8fd9\u4e2a\u5b57\u5199\u4e0a\u9ed1\u677f\u3002
p1040
(lp1041
(L7L
V\u6797\u8fbe\u94ed
p1042
V\u6797\u8fbe\u660e
p1043
tp1044
a(L15L
V\u8001\u662f
p1045
V\u8001\u5e08
p1046
tp1047
atp1048
a(V\u5927\u660e\u6765\u53f0\u5317\u4e24\u5929\u4e00\u540e\u6240\u4ee5\u4ed6\u4e0d\u4f1a\u8d70\u5230\u4ed6\u7684\u5b66\u6821\u3002
p1049
(lp1050
(L8L
V\u4e00\u540e
p1051
V\u4ee5\u540e
p1052
tp1053
atp1054
a(V\u4eca\u5929\u662f\u4ed6\u4e00\u6b21\u6709\u68f5\u53ef\u662f\u4ed6\u4e0d\u5c40\u9053\u600e\u4e48\u53bb\u3002
p1055
(lp1056
(L8L
V\u6709\u68f5
p1057
V\u6709\u8bfe
p1058
tp1059
a(L13L
V\u4e0d\u5c40\u9053
p1060
V\u4e0d\u77e5\u9053
p1061
tp1062
atp1063
a(V\u56e0\u4e3a\u4ed6\u6ca1\u6709\u94b1\u6240\u4ee5\u4ed6\u6709\u4e00\u4e2a\u5927\u7684\u4e66\u8ddf\u53f0\u5317\u50cf\u7247\u3002
p1064
(lp1065
(L19L
V\u50cf\u7247
p1066
V\u76f8\u7247
p1067
tp1068
atp1069
a(V\u5927\u660e\u544a\u8bc9\u5979\u4ed6\u8981\u53bb\u5b66\u6821\u53ef\u662f\u4ed6\u4e0d\u5c40\u9053\u5728\u90a3\u91cc\u3002
p1070
(lp1071
(L15L
V\u4e0d\u5c40\u9053
p1072
V\u4e0d\u77e5\u9053
p1073
tp1074
atp1075
a(V\u4eca\u5929\u5927\u660e\u7b2c\u4e00\u6b21\u5230\u5341\u5927\u53bb\uff0c\u4ed6\u662f\u65b0\u751f\u5728\u5e08\u5927\u3002
p1076
(lp1077
(L9L
V\u5341\u5927
p1078
V\u5e08\u5927
p1079
tp1080
atp1081
a(V\u56e0\u4e3a\u4ed6\u5341\u70b9\u4e8c\u5341\u5206\u4e0a\u8bfe\uff0c\u6240\u4ee5\u4ed6\u4e5d\u70b9\u4ece\u4ed6\u7684\u5bb6\u5230\u65f6\u5927\u53bb\u3002
p1082
(lp1083
(L22L
V\u65f6\u5927
p1084
V\u5e08\u5927
p1085
tp1086
atp1087
a(V\u5341\u5206\u949f\u4ee5\u540e\u4ed6\u7684\u8001\u5e08\u8fdb\u6765\uff0c\u5927\u660e\u770b\u5927\u7684\u8001\u5e08\u5c31\u77e5\u9053\u4ed6\u7684\u8001\u5e08\u662f\u5973\u751f\u5728\u9a6c\u8def\uff0c\u8001\u5e08\u4e5f\u8ba4\u5230\u5927\u660e\u793e\u7537\u751f\u95ee\u4ed6\u6377\u8fd0\u7ad9\u600e\u4e48\u8d70\u3002
p1088
(lp1089
(L16L
V\u5927\u7684\u8001\u5e08
p1090
V\u4ed6\u7684\u8001\u5e08
p1091
tp1092
a(L41L
V\u5927\u660e\u793e\u7537\u751f
p1093
V\u5927\u660e\u662f\u7537\u751f
p1094
tp1095
atp1096
a(V\u5728\u53f0\u6e7e\u6709\u4e00\u4e2a\u5916\u56fd\u4eba\uff0c\u4ed6\u8981\u53bb\u5e02\u5927\u5b66\u6821\u4f46\u662f\u4ed6\u4e0d\u77e5\u9053\u5e02\u5927\u5b66\u6821\u5728\u54ea\u513f\uff0c\u56e0\u4e3a\u4ed6\u4e0d\u4f1a\u8bf4\u4e2d\u6587\u8fd8\u6709\u5ff5\u4e2d\u56fd\u5b57\u4e5f\u770b\u4e0d\u61c2\u3002
p1097
(lp1098
(L14L
V\u5e02\u5927
p1099
V\u5e08\u5927
p1100
tp1101
a(L24L
g1099
g1100
tp1102
atp1103
a(V\u6240\u4ee5\u4ed6\u8bf7\u4e00\u4e2a\u5c0f\u59d0\u5e2e\u544a\u8bc9\u4ed6\u4ece\u8fd9\u91cc\u5230\u5e02\u5927\u5b66\u6821\u600e\u4e48\u8d70\uff1f\u7136\u540e\u518d\u90a3\u4e2a\u5c0f\u59d0\u544a\u8bc9\u4ed6\u5e02\u5927\u5b66\u6821\u4ece\u8fd9\u91cc\u5f80\u524d\u9762\u4e00\u76f4\u8d70\u7ecf\u8fc7\u5341\u5b57\u8def\u53e3\u5c31\u5230\u5e02\u5927\u5b66\u6821\u4e86\u3002
p1104
(lp1105
(L17L
V\u5e02\u5927
p1106
V\u5e08\u5927
p1107
tp1108
a(L35L
g1106
g1107
tp1109
a(L56L
g1106
g1107
tp1110
atp1111
a(V\u5916\u56fd\u5b66\u751f\u8bf4\u300c\u5bf9\u554a\uff0c\u6211\u662f\u5e02\u5927\u5b66\u751f\u53ef\u662f\u6211\u8fd8\u6ca1\u5f00\u59cb\u4e0a\u4e2d\u6587\u8bfe\uff0c\u8c22\u8c22\u4f60\uff01\u300d
p1112
(lp1113
(L12L
V\u5e02\u5927
p1114
V\u5e08\u5927
p1115
tp1116
atp1117
a(V\u7136\u540e\u90a3\u4e2a\u5916\u56fd\u5b66\u751f\u9a6c\u4e0a\u53bb\u5e02\u5927\u5b66\u6821\u5b66\u4e2d\u6587\u3002
p1118
(lp1119
(L12L
V\u5e02\u5927
p1120
V\u5e08\u5927
p1121
tp1122
atp1123
a(V\u4ed6\u8fdb\u53bb\u6559\u5ba4\u4ee5\u540e\u5ea7\u5728\u6905\u5b50\u3002
p1124
(lp1125
(L8L
V\u5ea7\u5728
p1126
V\u5750\u5728
p1127
tp1128
atp1129
a(V\u53ef\u662f\u6211\u521a\u521a\u6765\u7684\u7559\u5b66\u751f\uff0c\u6240\u4ee5\u6211\u4e0d\u667a\u9053\u5b66\u6821\u5728\u90a3\u513f\u3002
p1130
(lp1131
(L16L
V\u4e0d\u667a\u9053
p1132
V\u4e0d\u77e5\u9053
p1133
tp1134
atp1135
a(V\u6765\u4e86\u53f0\u6e7e\u7684\u65f6\u5019\u4ed6\u4e00\u4e2a\u4e2d\u56fd\u53e5\u5b50\u90fd\u4e0d\u4f1a\u8bf4\u3001\u4e00\u4e2a\u56fe\u7247\u90fd\u770b\u4e0d\u61c2\u3001\u8fd8\u6709\u4e00\u4e2a\u670b\u53cb\u90fd\u6ca1\u6709\uff0c\u600e\u95e8\u529e\uff1f
p1136
(lp1137
(L40L
V\u600e\u95e8\u529e
p1138
V\u600e\u4e48\u529e
p1139
tp1140
atp1141
a(V\u6211\u542c\u8bf4\u65e5\u672c\u7684\u7535\u8111\u5f88\u597d\uff0c\u8fd8\u6709\u5f88\u7814\u3002
p1142
(lp1143
(L15L
V\u5f88\u7814
p1144
V\u5f88\u989c
p1145
tp1146
atp1147
a(V\u4e0a\u4e2a\u661f\u671f\uff0c\u6211\u7684\u7535\u89c6\u673a\u6000\u4e86\uff0c\u6211\u8981\u4e70\u65b0\u7684\u3002
p1148
(lp1149
(L11L
V\u6000\u4e86
p1150
V\u574f\u4e86
p1151
tp1152
atp1153
a(V\u4ece\u661f\u671f\u4e00\u5230\u661f\u671f\u4e94\u6709\u8981\u662f\u4e0b\u4e2a\u5468\u672b\u4f60\u6709\u65f6\u95f4\uff0c\u4f60\u5c31\u53ef\u4ee5\u4e0d\u53ef\u4ee5\u5e2e\u6211\u4e70\u8fd9\u4e2a\u70b9\u89c6\u673a\uff1f
p1154
(lp1155
(L33L
V\u70b9\u89c6\u673a
p1156
V\u7535\u89c6\u673a
p1157
tp1158
atp1159
a(V\u6211\u7279\u522b\u559c\u6b22\u9ed1\u9ea6\u9762\u5305\uff0c\u4eca\u5929\u4e0a\u5348\u4f5c\u7684\u9ed1\u9ea6\u9762\u5305\u975e\u5e38\u597d\u3002
p1160
(lp1161
(L15L
V\u4f5c\u7684
p1162
V\u505a\u7684
p1163
tp1164
atp1165
a(V\u8bf7\u4f60\u66ff\u6211\u4e70\u4e00\u4e2a\u624b\u8868\u3002\u6211\u8981\u65b0\u7684\u624b\u8868\uff0c\u56e0\u4e3a\u6628\u5929\u665a\u4e0a\u6211\u8ddf\u4e00\u4e2a\u597d\u670b\u53cb\u4e00\u8d77\u53bb\u5403\u996d\u7684\u65f6\u5019\uff0c\u6211\u4e22\u4e86\u3002
p1166
(lp1167
tp1168
a(V\u6211\u89c9\u5f97\u5f88\u591a\u4eba\u559c\u6b22\u4e70\u9ed1\u8272\u7684\u4e66\u5305\u5e94\u4e3a\u4e0d\u5bb9\u6613\u6512\uff0c\u6211\u89c9\u5f97\u64e6\u5561\u8272\u4e5f\u6f02\u4eae\u3002
p1169
(lp1170
(L20L
V\u4e0d\u5bb9\u6613\u6512
p1171
V\u4e0d\u5bb9\u6613\u810f
p1172
tp1173
a(L25L
V\u64e6\u5561\u8272
p1174
V\u5496\u5561\u8272
p1175
tp1176
atp1177
a(V\u6ce5\u7070\u7f8e\u56fd\u5df2\u540e\uff0c\u8bf7\u4f60\u5e2e\u6211\u4e70\u4e00\u4e2a\u597d\u770b\u9ed1\u8272\u7684\u8868\u3002
p1178
(lp1179
(L1L
V\u6ce5\u7070\u7f8e\u56fd\u5df2\u540e
p1180
V\u4f60\u56de\u7f8e\u56fd\u4ee5\u540e
p1181
tp1182
a(L2L
g1180
g1181
tp1183
a(L5L
g1180
g1181
tp1184
atp1185
a(V\u6211\u60f3\u544a\u8bc9\u59b3\u4e00\u4e2a\u4e1c\u897f\uff1a\u59b3\u4f1a\u65f6\u540e\uff0c\u6211\u53ef\u4ee5\u5e2e\u59b3\u4e70\u4e1c\u897f\u3002\u8bf7\u59b3\u4f1a\u5bb6\u65f6\u540e\u6253\u7ed9\u6211\u3002
p1186
(lp1187
(L12L
V\u59b3\u4f1a\u65f6\u540e
p1188
V\u59b3\u56de\u65f6\u5019
p1189
tp1190
a(L14L
g1188
g1189
tp1191
a(L27L
V\u4f1a\u5bb6\u65f6\u540e
p1192
V\u56de\u5bb6\u65f6\u5019
p1193
tp1194
a(L30L
g1192
g1193
tp1195
atp1196
a(V\u5e94\u4e3a\u6700\u8fd1\u5929\u6c14\u6e10\u6e10\u51b7\u4e86\uff0c\u6240\u4ee5\u6211\u8981\u7a7f\u5916\u5957\u3002
p1197
(lp1198
(L1L
V\u5e94\u4e3a
p1199
V\u56e0\u4e3a
p1200
tp1201
atp1202
a(V\u56e0\u4e3a\u65e5\u672c\u7684\u96e8\u978b\u5f88\u53ef\u7231\u4e5f\u5f88\u6f02\u51c9\u3002
p1203
(lp1204
(L14L
V\u6f02\u51c9
p1205
V\u6f02\u4eae
p1206
tp1207
atp1208
a(V\u6211\u5728\u53f0\u6e7e\u5e38\u5e38\u53bb\u767e\u8d27\u516c\u53f8\u627e\u96e8\u978b\uff0c\u53ef\u662f\u6211\u6ca1\u770b\u5230\u90a3\u4e48\u7968\u51c9\u3002
p1209
(lp1210
(L24L
V\u7968\u51c9
p1211
V\u6f02\u4eae
p1212
tp1213
a(L25L
g1211
g1212
tp1214
atp1215
a(V\u8fd9\u79cd\u9762\u5305\u7684\u5916\u9762\u662f\u767d\u8272\u7684\uff0c\u662f\u5dee\u4e0d\u591a\u9ad8\u4e24\u516c\u9ad8\u7684\uff0c\u4e5f\u6709\u7cd6\u5728\u91cc\u9762\u3002\u51ac\u5929\uff0c\u9762\u5305\u70b9\u90fd\u5356\u3002
p1216
(lp1217
(L35L
V\u9762\u5305\u70b9
p1218
V\u9762\u5305\u5e97
p1219
tp1220
atp1221
a(V\u6211\u542c\u8bf4\u65e5\u672c\u53c8\u6f02\u4eae\u7684\u8863\u670d\u3002\u6211\u4e0d\u600e\u4eec\u559c\u6b22\u53f0\u6e7e\u7684\u8863\u670d\uff0c\u6240\u4ee5\u8981\u662f\u4f60\u9ebb\u70e6\u5e2e\u6211\u5fd9\uff0c\u6211\u771f\u5f88\u9ad8\u5174\u3002
p1222
(lp1223
(L6L
V\u53c8\u6f02\u4eae\u7684\u8863\u670d
p1224
V\u6709\u6f02\u4eae\u7684\u8863\u670d
p1225
tp1226
a(L16L
V\u600e\u4eec
p1227
V\u600e\u4e48
p1228
tp1229
atp1230
a(V\u8bf7\u4f60\u8981\u662f\u4f60\u5728\u65e5\u672c\u770b\uff0c\u6e05\u5356\u7ed9\u6211\u3002
p1231
(lp1232
(L11L
V\u6e05\u5356\u7ed9\u6211
p1233
V\u8bf7\u4e70\u7ed9\u6211
p1234
tp1235
a(L12L
g1233
g1234
tp1236
atp1237
a(V\u73b0\u5728\u6211\u4eec\u6709\u5f88\u591a\u6768\u8272\uff0c\u8981\u662f\u4f60\u8981\u5230\u6211\u4eec\u516c\u6240\u6765\uff0c\u6240\u4ee5\u4f60\u90fd\u53ef\u4ee5\u770b\u770b\u3002
p1238
(lp1239
(L8L
V\u6768\u8272
p1240
V\u989c\u8272
p1241
tp1242
a(L19L
V\u516c\u6240
p1243
V\u516c\u53f8
p1244
tp1245
atp1246
a(V\u4f60\u53bb\u4e00\u524d\uff0c\u6211\u53ef\u4ee5\u7ed9\u4f60\u94b1\u3002
p1247
(lp1248
(L3L
V\u4e00\u524d
p1249
V\u4ee5\u524d
p1250
tp1251
atp1252
a(V\u6211\u8981\u4e70\u4e00\u4ef6\u8863\u670d\u66f4\u4e00\u4e2a\u7167\u76f8\u673a\u3002
p1253
(lp1254
(L8L
V\u66f4
p1255
V\u8ddf
p1256
tp1257
atp1258
a(V\u56e0\u4e3a\u4f60\u7684\u56fd\u5bb6\u8fdc\u5f97\u4e0d\u5f97\u4e86\uff0c\u518d\u8bf4\u4f60\u4e00\u4e2a\u793c\u62dc\u7528\u5f88\u591a\u8863\u670d\uff0c\u6240\u4ee5\u6211\u770b\u5230\u7684\u7ea2\u8679\u5927\u5927\u7684\u5305\u5305\u6211\u89c9\u5f97\u4f60\u4e00\u5b9a\u8981\u4e70\u3002
p1259
(lp1260
(L33L
V\u7ea2\u8679
p1261
V\u7ea2\u7ea2
p1262
tp1263
atp1264
a(V\u8fd8\u6709\u5728\u90a3\u4e2a\u5305\u5305\u91cc\u9762\u91cc\u53ef\u4ee5\u653e\u5f88\u591a\u793c\u7269\u5f85\u4f60\u7684\u56fd\u5bb6\uff0c\u6240\u4ee5\u4f60\u53ef\u4ee5\u90a3\u4e9b\u793c\u7269\u7ed9\u4f60\u7684\u5bb6\u4eba\u8ba9\u4ed6\u4eec\u9ad8\u5fc3\u3002
p1265
(lp1266
(L18L
V\u5f85\u4f60\u7684\u56fd\u5bb6
p1267
V\u5230\u4f60\u7684\u56fd\u5bb6
p1268
tp1269
a(L42L
V\u9ad8\u5fc3
p1270
V\u9ad8\u5174
p1271
tp1272
atp1273
a(V\u8981\u662f\u4f60\u627e\u4e0d\u5230\u4f60\u5bb6\u5e97\u8bf7\u4f60\u6253\u7535\u8bdd\u7ed9\u6211\u3002
p1274
(lp1275
(L7L
V\u4f60\u5bb6\u5e97
p1276
V\u90a3\u5bb6\u5e97
p1277
tp1278
atp1279
a(V\u6211\u8981\u4e70\u4e00\u4e2a\u592a\u6837\u5175\uff0c\u56e0\u4e3a\u8fd9\u4e2a\u662f\u53f0\u6e7e\u7684\u4f20\u901a\u997c\u5e72\u3002
p1280
(lp1281
(L7L
V\u592a\u6837\u5175
p1282
V\u592a\u9633\u997c
p1283
tp1284
a(L8L
g1282
g1283
tp1285
a(L19L
V\u4f20\u901a
p1286
V\u4f20\u7edf
p1287
tp1288
atp1289
a(V\u53ef\u662f\u6211\u4e0d\u62d8\u5bfc\u4ec0\u4e48\u4e70\u3002\u8bf7\u4f60\u5e2e\u6211\uff01
p1290
(lp1291
(L5L
V\u4e0d\u62d8\u5bfc
p1292
V\u4e0d\u77e5\u9053
p1293
tp1294
a(L6L
g1292
g1293
tp1295
atp1296
a(V\u6211\u4e0d\u5480\u5bfc\u8981\u662f\u4e70\u8058\u679c\u897f\u74dc\u674e\u5b50\u3002
p1297
(lp1298
(L3L
V\u4e0d\u5480\u5bfc
p1299
V\u4e0d\u77e5\u9053
p1300
tp1301
a(L4L
g1299
g1300
tp1302
a(L8L
V\u8058\u679c
p1303
V\u82f9\u679c
p1304
tp1305
atp1306
a(V\u6211\u7684\u78b0\u599e\u8981\u5403\u8fd9\u4e2a\u4e1c\u897f\u3002
p1307
(lp1308
(L3L
V\u78b0\u599e
p1309
V\u670b\u53cb
p1310
tp1311
a(L4L
g1309
g1310
tp1312
atp1313
a(V\u5385\u8bf4\uff0c\u4f60\u8981\u56de\u56fd\u661f\u671f\u4e00\u3002\u6211\u6765\u4f60\u7684\u5bbf\u6821\uff0c\u53ef\u662f\u6211\u627e\u4e0d\u5230\u4f60\uff0c\u6240\u4ee5\u6211\u7559\u4e00\u6761\u4fe1\u3002
p1314
(lp1315
(L1L
V\u5385\u8bf4
p1316
V\u542c\u8bf4
p1317
tp1318
a(L17L
V\u5bbf\u6821
p1319
V\u5bbf\u820d
p1320
tp1321
atp1322
a(V\u8138\u8272\u8ddf\u6837\u5b50\u662f\u968f\u4fbf\u90fd\u53ef\u4ee5\uff0c\u9ebb\u70e6\u4f60\u5594\uff01
p1323
(lp1324
(L1L
V\u8138\u8272
p1325
V\u989c\u8272
p1326
tp1327
atp1328
a(V\u8fd8\u6709\u8fd9\u672c\u4e66\u5f88\u597d\u770b\uff0c\u4e5f\u4e0d\u592a\u91cd\u4e1a\u7ea2\u8272\u7684\u3002
p1329
(lp1330
(L14L
V\u4e1a
p1331
V\u4e5f
p1332
tp1333
atp1334
a(V\u73b0\u5728\u6211\u5728\u5bbf\u820d\uff0c\u4f60\u4e0d\u5728\u8fd9\u54e9\u3002
p1335
(lp1336
(L12L
V\u8fd9\u54e9
p1337
V\u8fd9\u91cc
p1338
tp1339
atp1340
a(V\u8981\u662f\u6211\u8d70\u7684\u90a3\u4e48\u6ee1\uff0c\u4e00\u5b9a\u4e0d\u80fd\u5750\u3002\u600e\u4e48\u529e\uff1f
p1341
(lp1342
(L8L
V\u90a3\u4e48\u6ee1
p1343
V\u90a3\u4e48\u6162
p1344
tp1345
atp1346
a(V\u6797\u5c0f\u5b89\u8bf4\uff1a\u300c\u597d\u6ca1\u95ee\u9898\uff0c\u6211\u53ef\u4ee5\u5e2e\u4f60\u3002\u8bf7\u8fdb\u6211\u4eec\u4e00\u8d77\u56de\u6210\u5e02\uff0c\u597d\u4e0d\u597d\uff1f\u300d
p1347
(lp1348
(L25L
V\u6210\u5e02
p1349
V\u57ce\u5e02
p1350
tp1351
atp1352
a(V\u4ed6\u8ddf\u6797\u5c0f\u5b89\u8bf4\u8c22\u8c22\u3001\u8fd8\u6709\u5728\u89c1\u3002
p1353
(lp1354
(L12L
V\u5728\u89c1
p1355
V\u518d\u89c1
p1356
tp1357
atp1358
a(V\u4e0b\u4e2a\u5468\u672b\uff0c\u6211\u4e00\u4e2a\u4eba\u5230\u5c71\u4e0a\u53bb\u53d1\u5c71\u3002
p1359
(lp1360
(L14L
V\u53d1\u5c71
p1361
V\u722c\u5c71
p1362
tp1363
atp1364
a(V\u6211\u6700\u559c\u6b22\u79cb\u5929\u5c71\u4e0a\u7684\u98ce\u955c\u3002
p1365
(lp1366
(L11L
V\u98ce\u955c
p1367
V\u98ce\u666f
p1368
tp1369
atp1370
a(V\u53d1\u5c71\u5f88\u6709\u610f\u601d\u3002
p1371
(lp1372
(L1L
V\u53d1\u5c71
p1373
V\u722c\u5c71
p1374
tp1375
atp1376
a(V\u6211\u53d1\u5c71\u53d1\u7684\u5f88\u597d\u3002
p1377
(lp1378
(L2L
V\u53d1\u5c71
p1379
V\u722c\u5c71
p1380
tp1381
a(L4L
V\u53d1\u7684\u5f88\u597d
p1382
V\u722c\u7684\u5f88\u597d
p1383
tp1384
atp1385
a(V\u6211\u53d1\u5c71\u53d1\u4e86\u516d\u4e2a\u5c0f\u65f6\u3002
p1386
(lp1387
(L2L
V\u53d1\u5c71
p1388
V\u722c\u5c71
p1389
tp1390
a(L4L
V\u53d1\u4e86
p1391
V\u722c\u4e86
p1392
tp1393
atp1394
a(V\u4ed6\u674f\u6797\uff0c\u53eb\u5c0f\u5b89\u3002
p1395
(lp1396
(L2L
V\u4ed6\u674f\u6797
p1397
V\u4ed6\u59d3\u6797
p1398
tp1399
atp1400
a(V\u4ed6\u4e5f\u5f88\u559c\u6b22\u53d1\u5c71\u3002
p1401
(lp1402
(L6L
V\u53d1\u5c71
p1403
V\u722c\u5c71
p1404
tp1405
atp1406
a(V\u6211\u4eec\u51b3\u5b9a\u4e0b\u4e2a\u6708\u4e00\u8d77\u53bb\u53d1\u5c71\u3002
p1407
(lp1408
(L11L
V\u53d1\u5c71
p1409
V\u722c\u5c71
p1410
tp1411
atp1412
a(V\u4ed6\u89c9\u5f97\u4e0a\u5c71\u5f88\u5bb9\u6613\uff0c\u6ca1\u6709\u75d5\u7d2f\uff0c\u6240\u4ee5\u4ed6\u6ca1\u6709\u4ec0\u4e48\u90fd\u51c6\u5907\u3002
p1413
(lp1414
(L12L
V\u75d5\u7d2f
p1415
V\u5f88\u7d2f
p1416
tp1417
atp1418
a(V\u4ed6\u8d70\u4e86\u5f88\u4e45\u4ee5\u540e\u4ed6\u89c9\u5f97\u4e00\u70b9\u7d2f\uff0c\u6240\u4ee5\u4ed6\u73b0\u4f11\u606f\u4e00\u4e0b\uff0c\u518d\u51b3\u5b9a\u56de\u5bb6\u3002
p1419
(lp1420
(L18L
V\u73b0\u4f11\u606f
p1421
V\u5148\u4f11\u606f
p1422
tp1423
atp1424
a(V\u4ed6\u7a7f\u84dd\u8272\u7684\u725b\u4ed4\u88e4\u6839\u80cc\u4e00\u4e2a\u9ed1\u8272\u7684\u80cc\u5305\u3002
p1425
(lp1426
(L9L
V\u6839
p1427
V\u8ddf
p1428
tp1429
atp1430
a(V\u674e\u53f0\u751f\u6839\u6797\u5c0f\u5b89\u4e00\u8d77\u5f00\u8fc7\u53bb\u706b\u8f66\u7ad9\u3002
p1431
(lp1432
(L4L
V\u6839
p1433
V\u8ddf
p1434
tp1435
atp1436
a(V\u4ed6\u65b9\u5047\u7684\u65f6\u5019\u53bb\u722c\u5c71\u3002
p1437
(lp1438
(L2L
V\u65b9\u5047
p1439
V\u653e\u5047
p1440
tp1441
atp1442
a(V\u6211\u4eca\u5929\u65e9\u4e0a\u5728\u4e61\u4e0b\u770b\u4e00\u4e9b\u5f88\u6f02\u4eae\u7684\u98ce\u4eac\u3002
p1443
(lp1444
(L17L
V\u98ce\u4eac
p1445
V\u98ce\u666f
p1446
tp1447
atp1448
a(V\u6709\u4e00\u5929\u6797\u5c0f\u5b89\u53bb\u722c\u5c71\uff0c\u56e0\u4e3a\u542c\u8bf4\u98ce\u4eac\u5f88\u6f02\u4eae\u3002
p1449
(lp1450
(L16L
V\u98ce\u4eac
p1451
V\u98ce\u666f
p1452
tp1453
atp1454
a(V\u6211\u5f97\u5ea7\u706b\u8f66\u56de\u5bb6\u53bb\uff0c\u53ef\u662f\u706b\u8f66\u7ad9\u8fdc\u5f97\u4e0d\u5f97\u4e86\uff0c\u6211\u6015\u6211\u8d70\u4e0d\u5230\u3002
p1455
(lp1456
(L3L
V\u5ea7\u706b\u8f66
p1457
V\u5750\u706b\u8f66
p1458
tp1459
atp1460
a(V\u5f00\u8f66\u7684\u4eba\u542c\u4e86\u4ed6\u7684\u534e\u9a6c\u4e0a\u8bf4\uff1a\u300c\u6211\u53ef\u4ee5\u7528\u6211\u7684\u8f66\u966a\u4f60\u53bb\uff0c\u597d\u4e0d\u597d\uff1f\u300d
p1461
(lp1462
(L9L
V\u4ed6\u7684\u534e
p1463
V\u4ed6\u7684\u8bdd
p1464
tp1465
atp1466
a(V\u4ed6\u7b49\u4e00\u4e0b\uff0c\u6237\u7136\u4ed6\u770b\u5230\u4e00\u8f86\u6c7d\u8f66\u3002
p1467
(lp1468
(L6L
V\u6237\u7136
p1469
V\u5ffd\u7136
p1470
tp1471
atp1472
a(V\u7406\u9762\u7684\u6c7d\u8f66\u6709\u4e00\u4e2a\u4eba\uff0c\u4ed6\u8bf4\u4ed6\u53ef\u4ee5\u5f00\u9001\u7ed9\u4ed6\u4f1a\u5bb6\u3002
p1473
(lp1474
(L1L
V\u7406\u9762
p1475
V\u91cc\u9762
p1476
tp1477
a(L20L
V\u4f1a\u5bb6
p1478
V\u56de\u5bb6
p1479
tp1480
atp1481
a(V\u674e\u53f0\u751f\u8981\u56de\u53bb\uff0c\u4f46\u662f\u6211\u5230\u4e86\u65c1\u8fb9\u7684\u8def\u6ca1\u6709\u8f66\u53ef\u4ee5\u505a\u56de\u53bb\u3002
p1482
(lp1483
(L22L
V\u505a\u56de\u53bb
p1484
V\u5750\u56de\u53bb
p1485
tp1486
atp1487
a(V\u4eca\u5929\uff0c\u674e\u53f0\u751f\u5f88\u65e9\u51fa\u4eec\u4e86\u3002
p1488
(lp1489
(L10L
V\u51fa\u4eec
p1490
V\u51fa\u95e8
p1491
tp1492
atp1493
a(V\u4ed6\u613f\u8d56\u5929\u6c14\u592a\u70ed\uff0c\u6240\u4ee5\u5728\u8def\u65c1\u8fb9\u505c\u4e86\u3002
p1494
(lp1495
(L2L
V\u613f\u8d56
p1496
V\u539f\u6765
p1497
tp1498
a(L3L
g1496
g1497
tp1499
atp1500
a(V\u770b\u8f66\u6765\u4e86\uff0c\u4ed6\u5427\u624b\u95ee\u5f00\u8f66\u7684\u4eba\u505c\u8f66\u4e86\u3002
p1501
(lp1502
(L7L
V\u5427\u624b
p1503
V\u628a\u624b
p1504
tp1505
atp1506
a(V\u5f00\u8f66\u7684\u5148\u751f\u5427\u7a97\u6237\u5f00\u5f00\u3002
p1507
(lp1508
(L6L
V\u5427
p1509
V\u628a
p1510
tp1511
atp1512
a(V\u8d70\u8def\u7684\u65f6\u5019\u4ed6\u8bd5\u8bd5\u770b\u5385\u8def\u4e0a\u7684\u6c7d\u8f66\uff0c\u5c31\u4e00\u4f4d\u5148\u751f\u5385\u8fd8\u544a\u8bc9\u5bf9\u6211\u5f1f\u5f1f\uff0c\u4ed6\u4e5f\u5230\u82f1\u56fd\u53bb\uff0c\u6240\u4ee5\u6211\u5f1f\u5f1f\u53ef\u4ee5\u8ddf\u4ed6\u4e00\u8d77\u8d70\u3002
p1513
(lp1514
(L10L
V\u5385\u8def\u4e0a
p1515
V\u542c\u8def\u4e0a
p1516
tp1517
a(L22L
V\u5ef0
p1518
V\u505c
p1519
tp1520
atp1521
a(V\u4ed6\u770b\u5230\u4e86\u4e00\u8f86\u7ea2\u6c7d\u8f66\uff0c\u5c31\u51b3\u5b9a\u53eb\u90a3\u4e2a\u4eba\u5b9a\u8f66\u3002
p1522
(lp1523
(L18L
V\u5b9a\u8f66
p1524
V\u505c\u8f66
p1525
tp1526
atp1527
a(V\u516d\u70b9\u534a\uff0c\u4ed6\u5230\u706b\u8f66\u7ad9\uff0c\u6240\u4ee5\u4ed6\u5f88\u9ad8\u73b0\u3002
p1528
(lp1529
(L16L
V\u9ad8\u73b0
p1530
V\u9ad8\u5174
p1531
tp1532
atp1533
a(V\u4ed6\u6392\u7167\u98ce\u666f\uff0c\u7136\u540e\u5916\u9762\u4e00\u70b9\u513f\u9ed1\u4e86\uff0c\u4ed6\u60f3\u4e0b\u5c71\u53bb\u4ee5\u540e\u56de\u5bb6\u3002
p1534
(lp1535
(L2L
V\u6392\u7167
p1536
V\u62cd\u7167
p1537
tp1538
atp1539
a(V\u4ed6\u653e\u4e0a\u4ed6\u7684\u5a49\uff0c\u4e00\u8f86\u6c7d\u8f66\u505c\u4e86\u3002
p1540
(lp1541
(L6L
V\u4ed6\u7684\u5a49
p1542
V\u4ed6\u7684\u8155
p1543
tp1544
atp1545
a(V\u6c7d\u8f66\u505c\u8f66\uff0c\u7136\u540e\u4ed6\u8fc7\u53bb\u6c7d\u8f66\u8981\u95ee\u7537\u751f\u539f\u610f\u9001\u4ed6\u5230\u53f0\u5317\u706b\u8f66\u7ad9\u53bb\u3002
p1546
(lp1547
(L17L
V\u539f\u610f
p1548
V\u613f\u610f
p1549
tp1550
atp1551
a(V\u56e0\u4e3a\u5c0f\u5b89\u6ca1\u4eba\u7423\u4ed6\uff0c\u4ed6\u6709\u4e00\u70b9\u4e0d\u9ad8\u5174\u3002
p1552
(lp1553
(L7L
V\u6ca1\u4eba\u7423\u4ed6
p1554
V\u6ca1\u4eba\u966a\u4ed6
p1555
tp1556
atp1557
a(V\u5f80\u524d\u5c31\u4e00\u53f0\u8f66\u5f00\u8fc7\u6765\uff0c\u628a\u6797\u5c0f\u5b89\u6b79\u53bb\u8f66\u5e10\u3002
p1558
(lp1559
(L15L
V\u6b79\u53bb
p1560
V\u5e26\u53bb
p1561
tp1562
a(L18L
V\u8f66\u5e10
p1563
V\u8f66\u7ad9
p1564
tp1565
atp1566
a(V\u4e0a\u4e2a\u6708\u6211\u81ea\u5373\u53bb\u4e61\u4e0b\u7684\u5730\u65b9\u8d70\u8def\u3002
p1567
(lp1568
(L6L
V\u81ea\u5373
p1569
V\u81ea\u5df1
p1570
tp1571
atp1572
a(V\u5728\u90a3\u4e2a\u5730\u65b9\u6211\u6253\u7b97\u8d70\u5dee\u4e0d\u591a\u4e09\u4e2a\u5c0f\u65f6\u8d70\u8def\uff0c\u6211\u5f00\u662f\u8d70\u8def\u7684\u65f6\u5019\u6211\u89c9\u5f97\u5f88\u5f3a\u3002
p1573
(lp1574
(L22L
V\u5f00\u662f
p1575
V\u5f00\u59cb
p1576
tp1577
atp1578
a(V\u5728\u4f11\u606f\u7684\u65f6\u5019\u6211\u53c8\u5403\u4e00\u70b9\u70b9\u5fc3\u53c8\u548c\u4e00\u70b9\u996e\u6599\u3002
p1579
(lp1580
(L15L
V\u548c\u4e00\u70b9\u996e\u6599
p1581
V\u559d\u4e00\u70b9\u996e\u6599
p1582
tp1583
atp1584
a(V\u4ed6\u95ee\u4e3a\u4ec0\u4e48\u6211\u5728\u8fd9\u79bb\u81ea\u5df1\u7ad9\u7740\u7136\u9001\u6211\u56de\u706b\u8f66\u7ad9\u3002
p1585
(lp1586
(L9L
V\u8fd9\u79bb
p1587
V\u8fd9\u91cc
p1588
tp1589
atp1590
a(V\u56e0\u4e3a\u5929\u6c14\u5f88\u597d\uff0c\u6240\u4ee5\u4ed6\u6253\u7b97\u53bb\u5f55\u884c\u3002
p1591
(lp1592
(L14L
V\u5f55\u884c
p1593
V\u65c5\u884c
p1594
tp1595
atp1596
a(V\u4ed6\u4eec\u8c08\u7740\u8c08\u8005\u5c31\u5230\u4e86\u56db\u70b9\u534a\u3002
p1597
(lp1598
(L6L
V\u8c08\u7740\u8c08\u8005
p1599
V\u8c08\u7740\u8c08\u7740
p1600
tp1601
atp1602
a(V\u56e0\u4e3a\u5c71\u4e0a\u7684\u7a7a\u6c14\u6bd4\u90a3\u7406\u5f88\u597d\u3002
p1603
(lp1604
(L10L
V\u90a3\u7406
p1605
V\u90a3\u91cc
p1606
tp1607
atp1608
a(V\u4e0b\u5348\u7684\u65f6\u5019\u9664\u4e86\u770b\u5f88\u591a\u6f02\u4eae\u7684\u672f\uff0c\u8fd8\u6709\u5f88\u591a\u7279\u522b\u7684\u82b1\u3002
p1609
(lp1610
(L14L
V\u6f02\u4eae\u7684\u672f
p1611
V\u6f02\u4eae\u7684\u6811
p1612
tp1613
atp1614
a(V\u6211\u8ff7\u8def\u4e86\u3002\u6240\u4ee5\u4f60\u53ef\u4ee5\u6234\u6211\u53bb\u706b\u8f66\u7ad9\uff0c\u597d\u5417\uff1f
p1615
(lp1616
(L11L
V\u6234\u6211
p1617
V\u8f7d\u6211
p1618
tp1619
atp1620
a(V\u4f5c\u5929\uff0c\u6211\u722c\u5c71\uff0c\u7a7a\u6c14\u597d\u8fd8\u6709\u770b\u6cd5\u5f88\u6f02\u4eae\u3002
p1621
(lp1622
(L1L
V\u4f5c\u5929
p1623
V\u6628\u5929
p1624
tp1625
atp1626
a(V\u5728\u4e2d\u5348\uff0c\u5929\u6c14\u5f88\u65e5\uff0c\u65e5\u5b50\u8fc7\u5f97\u5f88\u5feb\uff0c\u6211\u4e00\u70b9\u7740\u6025\u3002
p1627
(lp1628
(L8L
V\u5f88\u65e5
p1629
V\u5f88\u70ed
p1630
tp1631
atp1632
a(V\u5403\u996d\u4e86\u4ee5\u540e\uff0c\u6211\u62cd\u4e86\u5f88\u591a\u7167\u7bc7\u3002
p1633
(lp1634
(L13L
V\u7167\u7bc7
p1635
V\u7167\u7247
p1636
tp1637
atp1638
a(V\u6211\u5f88\u4e45\u65f6\u95f4\u7b49\u4e86\u5e2e\u5fd9\u6211\u7684\u4eba\uff0c\u6240\u4ee5\u9ad8\u5174\u7684\u4e0d\u5f97\u4e86\u3002
p1639
(lp1640
(L18L
V\u9ad8\u5174\u7684\u4e0d\u5f97\u4e86
p1641
V\u9ad8\u5174\u5f97\u4e0d\u5f97\u4e86
p1642
tp1643
atp1644
a(V\u4ece\u53e4\u4ead\u7ad9\u5f80\u5e08\u5927\u4e00\u76f4\u8d70\uff0c\u8d70\u5230\uff17\uff0d\uff11\uff11\u7ed9\u6211\u6253\u7535\u8bdd\u6211\u501f\u4f60\u4eec\uff01
p1645
(lp1646
(L24L
V\u6211\u501f\u4f60\u4eec
p1647
V\u6211\u63a5\u4f60\u4eec
p1648
tp1649
atp1650
a(V\u4f60\u4eec\u53ef\u4ee5\u5750\u5e02\u5927\u516c\u8f66\u6765\u5230\u6211\u4eec\u7684\u5bb6\u5bf9\u9762\u3002
p1651
(lp1652
(L6L
V\u5e02\u5927
p1653
V\u5e08\u5927
p1654
tp1655
atp1656
a(V\u5f1f\u5f1f\u8bf7\u6765\u7684\u670b\u53cb\u5199\u4e00\u5f20\u5361\u7247\u7ed9\u4ed6\uff0c\u4ed6\u8bf7\u670b\u53cb\u6765\u4e0b\u9762\u5b8c\u513f\u3002
p1657
(lp1658
(L23L
V\u5b8c\u513f
p1659
V\u73a9\u513f
p1660
tp1661
atp1662
a(V\u6211\u8981\u505a\u4e00\u4e2a\u5f88\u5927\u7684\u751f\u65e5\u4f1a\uff0c\u6240\u4ee5\u4e0b\u661f\u671f\u516d\u63e1\u7740\u6211\u7684\u670b\u53cb\u6211\u5bb6\u6765\u3002
p1663
(lp1664
(L19L
V\u63e1\u7740\u6211\u7684\u670b\u53cb
p1665
V\u6211\u627e\u6211\u7684\u670b\u53cb
p1666
tp1667
a(L20L
g1665
g1666
tp1668
atp1669
a(V\u4f60\u80fd\u4ece\u53f0\u914d\u79cd\u6218\u706b\u8f66\u5230\u6de1\u6c34\u5750\u706b\u8f66\u3002
p1670
(lp1671
(L5L
V\u53f0\u914d\u79cd\u6218
p1672
V\u53f0\u5317\u603b\u7ad9
p1673
tp1674
a(L6L
g1672
g1673
tp1675
a(L7L
g1672
g1673
tp1676
atp1677
a(V\u4e5d\u53f7\u662f\u6211\u7684\u5f1f\u5f1f\u751f\u65e5\uff0c\u6240\u4ee5\u6211\u60f3\u8981\u8bf7\u4f60\u4eec\u4e00\u8d77\u6765\u6211\u7684\u5bb6\u5b8c\u3001\u5403\u996d\u3001\u4e5f\u5403\u515a\u5965\u3002
p1678
(lp1679
(L25L
V\u6765\u6211\u7684\u5bb6\u5b8c
p1680
V\u6765\u6211\u7684\u5bb6\u73a9
p1681
tp1682
a(L32L
V\u515a\u5965
p1683
V\u86cb\u7cd5
p1684
tp1685
a(L33L
g1683
g1684
tp1686
atp1687
a(V\u6211\u7684\u5f1f\u5f1f\u4e5f\u5f88\u9ad8\u85aa\u770b\u5230\u4f60\u4eec\uff0c\u56e0\u4e3a\u4f60\u4eec\u597d\u4e45\u4e0d\u89c1\u6ca1\u770b\u5230\u3002
p1688
(lp1689
(L8L
V\u9ad8\u85aa
p1690
V\u9ad8\u5174
p1691
tp1692
atp1693
a(V\u8425\u4e3a\u4ed6\u4eec\u5728\u4e66\u5e97\u4e09\u4e2a\u949f\u5934\uff0c\u6240\u4ee5\u6211\u5f1f\u5f1f\u6b64\u4ed6\u670b\u53cb\u6765\u6211\u4eec\u7684\u5bb6\u5403\u996d\u3002
p1694
(lp1695
(L1L
V\u8425\u4e3a
p1696
V\u56e0\u4e3a
p1697
tp1698
a(L18L
V\u6b64\u4ed6\u670b\u53cb
p1699
V\u8bf7\u4ed6\u670b\u53cb
p1700
tp1701
atp1702
a(V\u5979\u95e8\u4ece\u5b66\u6821\u53ea\u8981\u5ea7\u4e94\u516d\u5206\u949f\u7684\u516c\u8f66\u5230\u6211\u5bb6\uff0c\u56e0\u4e3a\u5979\u4eec\u89c9\u5f97\u8d70\u8def\u5f88\u7d2f\u3002
p1703
(lp1704
(L2L
V\u5979\u95e8
p1705
V\u5979\u4eec
p1706
tp1707
a(L8L
V\u5ea7
p1708
V\u5750
p1709
tp1710
atp1711
a(V\uff12\uff10\uff10\uff18\u5e74\uff11\uff12\u6708\uff12\u53f7\u662f\u6211\u5f1f\u5f1f\u7684\u4e9b\u65e5\u3002
p1712
(lp1713
(L16L
V\u4e9b\u65e5
p1714
V\u751f\u65e5
p1715
tp1716
atp1717
a(V\u6211\u4eec\u6253\u7b97\u5f00\u4e00\u4e2a\u4e9b\u65e5\u4f1a\u3002
p1718
(lp1719
(L8L
V\u4e9b\u65e5\u4f1a
p1720
V\u751f\u65e5\u4f1a
p1721
tp1722
atp1723
a(V\u6211\u5bb6\u5728\u53f0\u5317\u7ad9\u5317\u53e3\u7684\u53f3\u904d\uff0c\u767e\u8d27\u516c\u53f8\u7684\u5bf9\u9762\u3002
p1724
(lp1725
(L11L
V\u53f3\u904d
p1726
V\u53f3\u8fb9
p1727
tp1728
atp1729
a(V\u6211\u4eec\u7684\u5bb6\u4e2d\u5348\uff11\uff13\uff1a\uff10\uff10\u5f00\u65f6\u3002
p1730
(lp1731
(L13L
V\u5f00\u65f6
p1732
V\u5f00\u59cb
p1733
tp1734
atp1735
a(V\u6211\u7684\u5bb6\u79bb\u53e4\u4ead\u7ad9\u4e0d\u8fdc\uff0c\u6211\u516d\u70b9\u5c31\u8ddf\u4f60\u4eec\u90a3\u7406\u89c1\u9762\uff0c\u597d\u4e0d\u597d\uff1f
p1736
(lp1737
(L19L
V\u90a3\u7406
p1738
V\u90a3\u91cc
p1739
tp1740
atp1741
a(V\u4f60\u4eec\u4e00\u5b9a\u8981\u505a\u516b\u516b\u7684\u516c\u8f66\u5230\u6211\u4eec\u5bb6\u6765\uff01\u4ece\u53f0\u5317\u8f66\u7ad9\u5230\u6211\u4eec\u5bb6\u8981\u505a\u4e00\u4e2a\u5c0f\u65f6\uff01
p1742
(lp1743
(L6L
V\u505a\u516b\u516b\u7684\u516c\u8f66
p1744
V\u5750\u516b\u516b\u7684\u516c\u8f66
p1745
tp1746
a(L28L
V\u505a\u4e00\u4e2a\u5c0f\u65f6
p1747
V\u5750\u4e00\u4e2a\u5c0f\u65f6
p1748
tp1749
atp1750
a(V\u540e\u5929\u662f\u5c0f\u660e\u7684\u751f\u65e5\uff0c\u6211\u8981\u5f00\u4e00\u4e2a\u65e0\u4f1a\u3002
p1751
(lp1752
(L15L
V\u65e0\u4f1a
p1753
V\u821e\u4f1a
p1754
tp1755
atp1756
a(V\u6211\u4e48\u4f4f\u5728\u65b0\u5e97\u56fe\u4e66\u9986\u7684\u65c1\u8fb9\u3002
p1757
(lp1758
(L2L
V\u6211\u4e48
p1759
V\u6211\u4eec
p1760
tp1761
atp1762
a(V\u9644\u8fd1\u6709\u4e00\u5bb6\u8d85\u7ea7\u5e02\u573a\uff0c\u5bf9\u4eec\u6709\u4e00\u4e2a\u4e66\u5e97\u3002
p1763
(lp1764
(L12L
V\u5bf9\u4eec
p1765
V\u5bf9\u95e8
p1766
tp1767
atp1768
a(V\u540e\u6765\u6211\u5b66\u73a9\u4e86\uff0c\u6211\u642c\u5bb6\u5230\u7f8e\u56fd\u897f\u90e8\u53bb\u3002
p1769
(lp1770
(L5L
V\u5b66\u73a9\u4e86
p1771
V\u5b66\u5b8c\u4e86
p1772
tp1773
atp1774
a(V\u6211\u6700\u559c\u6b22\u54ea\u4e2a\u5730\u65b9\uff01
p1775
(lp1776
(L5L
V\u54ea\u4e2a
p1777
V\u90a3\u4e2a
p1778
tp1779
atp1780
a(V\u53ef\u662f\u6625\u5929\u8ddf\u79cb\u5929\u7684\u98ce\u666f\u7968\u6f02\u4eae\u4eae\u7684\uff0c\u6625\u5929\u53ef\u4ee5\u770b\u770b\u5f00\u82b1\u3002
p1781
(lp1782
(L11L
V\u7968\u6f02\u4eae\u4eae
p1783
V\u6f02\u6f02\u4eae\u4eae
p1784
tp1785
atp1786
a(V\u5728\u8bf4\uff0c\u6211\u89c9\u5f97\u8fd9\u91cc\u4e5f\u53ef\u4ee5\u6709\u5f88\u597d\u73a9\uff0c\u4e5f\u53ef\u4ee5\u5b66\u5f88\u591a\u5f88\u597d\u7684\u4e1c\u897f\u3002
p1787
(lp1788
(L1L
V\u5728\u8bf4
p1789
V\u518d\u8bf4
p1790
tp1791
atp1792
a(V\u5728\u5b89\u5361\u62c9\u6211\u6700\u559c\u6697\u7684\u5b63\u8282\u662f\u79cb\u5929\u3002
p1793
(lp1794
(L8L
V\u559c\u6697
p1795
V\u559c\u6b22
p1796
tp1797
atp1798
a(V\u79cb\u5929\u7684\u65f6\u5019\u5e38\u5e38\u4e0b\u5927\u96e8\uff0c\u62ec\u5927\u98ce\u3002
p1799
(lp1800
(L12L
V\u62ec\u5927\u98ce
p1801
V\u522e\u5927\u98ce
p1802
tp1803
atp1804
a(V\u51ac\u5929\u7684\u662f\u540e\u5929\u6c14\u70ed\u5f97\u4e0d\u5f97\u4e86\u3002
p1805
(lp1806
(L4L
V\u662f\u540e
p1807
V\u65f6\u5019
p1808
tp1809
a(L5L
g1807
g1808
tp1810
atp1811
a(V\u6625\u5929\u7684\u65f6\u5019\u5f00\u82b1\uff0c\u4ec0\u4e48\u5730\u65b9\u90fd\u5f55\u4e86\u3002
p1812
(lp1813
(L14L
V\u5f55\u4e86
p1814
V\u7eff\u4e86
p1815
tp1816
atp1817
a(V\u51b7\u7684\u65f6\u5019\u4eba\u4e0d\u592a\u53bb\u5916\u9762\uff0c\u4ed6\u4eec\u5728\u5bb6\u559d\u6279\u5177\u3002
p1818
(lp1819
(L17L
V\u6279\u5177
p1820
V\u5564\u9152
p1821
tp1822
a(L18L
g1820
g1821
tp1823
atp1824
a(V\u82f1\u56fd\u7684\u6279\u5177\u5f88\u597d\u559d\uff0c\u6211\u5f88\u559c\u6b22\uff01
p1825
(lp1826
(L4L
V\u6279\u5177
p1827
V\u5564\u9152
p1828
tp1829
a(L5L
g1827
g1828
tp1830
atp1831
a(V\u6211\u89c9\u5f97\u6cf0\u56fd\u6d77\u8fb9\u662f\u4e16\u754c\u4e0a\u6700\u9aa0\u4e86\u5730\u65b9\u3002
p1832
(lp1833
(L13L
V\u9aa0\u4e86
p1834
V\u6f02\u4eae
p1835
tp1836
a(L14L
g1834
g1835
tp1837
atp1838
a(V\u5728\u7785\u5929\uff0c\u5929\u6c14\u4e0d\u70ed\u4e5f\u4e0d\u51b7\u3002
p1839
(lp1840
(L2L
V\u7785\u5929
p1841
V\u79cb\u5929
p1842
tp1843
atp1844
a(V\u6211\u5728\u5965\u5730\u5229\u51fa\u4e16\uff0c\u6211\u5728\u96be\u5fb7\u957f\u5927\u3002
p1845
(lp1846
(L11L
V\u96be\u5fb7
p1847
V\u5357\u5fb7
p1848
tp1849
atp1850
a(V\u56e0\u4e3a\u5fb7\u56fd\u7684\u5929\u6c14\u4e0d\u662f\u8fd9\u4e48\u70ed\u7684\uff0c\u4e5f\u4e0d\u592a\u65bd\u3002
p1851
(lp1852
(L18L
V\u4e0d\u592a\u65bd
p1853
V\u4e0d\u592a\u6e7f
p1854
tp1855
atp1856
a(V\u6625\u5929\u8ddf\u79cb\u5929\u90fd\u5f88\u8212\u670d\uff0c\u53ef\u662f\u51ac\u5929\u4ef6\u6216\u592a\u51b7\u3002
p1857
(lp1858
(L15L
V\u51ac\u5929\u4ef6
p1859
V\u51ac\u5929\u95f4
p1860
tp1861
atp1862
a(V\u6211\u5f88\u559c\u6b22\u90a3\u4e2a\u5730\u65b9\uff0c\u56e0\u4e3a\u662f\u6211\u5e38\u5927\u7684\u5730\u65b9\u3002
p1863
(lp1864
(L14L
V\u5e38\u5927
p1865
V\u957f\u5927
p1866
tp1867
atp1868
a(V\u6211\u4e5f\u5f88\u559c\u6b22\u6211\u7684\u56fd\u5bb6\uff0c\u56e0\u4e3a\u6211\u89c9\u5f97\u5fb7\u56fd\u7684\u6587\u5316\u771f\u522b\u53ea\u3002
p1869
(lp1870
(L23L
V\u522b\u53ea
p1871
V\u522b\u81f4
p1872
tp1873
atp1874
a(V\u54ea\u91cc\u7684\u5929\u6c14\u5f88\u597d\uff0c\u4e0d\u592a\u70ed\u4e5f\u4e0d\u592a\u51b7\u3002
p1875
(lp1876
(L1L
V\u54ea\u91cc
p1877
V\u90a3\u91cc
p1878
tp1879
atp1880
a(V\u6625\u5929\u8ddf\u6101\u5929\u5f88\u8212\u670d\u3002\u51ac\u5929\u5f88\u51b7\uff0c\u590f\u5929\u5f88\u70ed\uff0c\u6240\u4ee5\u6211\u4e0d\u5f88\u559c\u4e24\u4e2a\u5b63\u8282\u3002
p1881
(lp1882
(L4L
V\u6101\u5929
p1883
V\u79cb\u5929
p1884
tp1885
atp1886
a(V\u5929\u8d77\u90a3\u91cc\u4e0d\u600e\u4e48\u597d\u3002
p1887
(lp1888
(L2L
V\u5929\u8d77
p1889
V\u5929\u6c14
p1890
tp1891
atp1892
a(V\u6625\u5929\u6709\u4e00\u70b9\u513f\u51b7\uff0c\u53ef\u662f\u5f88\u7f8e\uff0c\u56e0\u4e3a\u6709\u5f88\u90fd\u4e0d\u4e00\u6837\u7684\u82b1\u3002
p1893
(lp1894
(L18L
V\u5f88\u90fd
p1895
V\u5f88\u591a
p1896
tp1897
atp1898
a(V\u590f\u5929\u4e5f\u4e0d\u9519\uff0c\u4e0d\u592a\u70ed\u53ef\u4ee5\u585e\u592a\u9633\u3002
p1899
(lp1900
(L12L
V\u585e\u592a\u9633
p1901
V\u6652\u592a\u9633
p1902
tp1903
atp1904
a(V\u79cb\u5929\u6700\u6f02\u4eae\uff0c\u4e00\u70b9\u513f\u51b7\u53ef\u662f\u672f\u90fd\u7ea2\u8272\u8ddf\u9ec4\u8272\u3002
p1905
(lp1906
(L13L
V\u672f
p1907
V\u6811
p1908
tp1909
atp1910
a(V\u56e0\u4e3a\u6211\u5bb6\u7684\u98ce\u666f\u8ddf\u7f8e\u3002
p1911
(lp1912
(L8L
V\u8ddf\u7f8e
p1913
V\u5f88\u7f8e
p1914
tp1915
atp1916
a(V\u5982\u679c\u4f60\u65b9\u9762\u7684\u8bdd\uff0c\u6211\u4f1a\u4e09\u5341\u5206\u524d\u63a5\u4f60\u3002
p1917
(lp1918
(L5L
V\u65b9\u9762
p1919
V\u65b9\u4fbf
p1920
tp1921
atp1922
a(V\u60c5\u7231\u7684\u670b\u53cb\u3002
p1923
(lp1924
(L1L
V\u60c5\u7231
p1925
V\u4eb2\u7231
p1926
tp1927
atp1928
a(V\u8fd9\u662f\u5f88\u7279\u522b\uff0c\u5e94\u4e3a\u6211\u81ea\u5df1\u4f5c\u996d\u3002
p1929
(lp1930
(L7L
V\u5e94\u4e3a
p1931
V\u56e0\u4e3a
p1932
tp1933
atp1934
a(V\u4f60\u5355\u8ba9\u77e5\u9053\u6211\u7684\u5bb6\u5728\u90a3\u91cc\u3002
p1935
(lp1936
(L2L
V\u5355\u8ba9
p1937
V\u5f53\u7136
p1938
tp1939
a(L3L
g1937
g1938
tp1940
atp1941
a(V\u90a3\u5bb6\u9910\u5385\u662f\u5403\u5230\u9971\u7684\u9910\u5385\uff0c\u6240\u4ee5\u6211\u611f\u5728\u54ea\u91cc\u5403\u996d\u3002
p1942
(lp1943
(L16L
V\u611f\u5728
p1944
V\u6539\u5728
p1945
tp1946
atp1947
a(V\u5982\u679c\u4f60\u6709\u5b54\uff0c\u8bf7\u4f60\u6253\u7535\u8bdd\u7ed9\u6211\uff0c\u544a\u8bc9\u6211\u4ec0\u4e48\u65f6\u5019\u4f60\u6709\u7a7a\u3002
p1948
(lp1949
(L5L
V\u6709\u5b54
p1950
V\u6709\u7a7a
p1951
tp1952
atp1953
a(V\u5403\u845a\u4e48\uff1f\u6211\u8981\u5403\u5bab\u4fdd\u9e21\u4e01\u3002
p1954
(lp1955
(L2L
V\u5403\u845a\u4e48
p1956
V\u5403\u4ec0\u4e48
p1957
tp1958
atp1959
a(V\u542c\u6240\u5b66\u6821\u9694\u58c1\u90a3\u5bb6\u6cd5\u56fd\u9910\u5385\u4e0d\u9519\u4e5f\u4e0d\u592a\u8d35\uff0c\u4f60\u5403\u8fc7\u5417\uff1f
p1960
(lp1961
(L2L
V\u542c\u6240
p1962
V\u542c\u8bf4
p1963
tp1964
atp1965
a(V\u6211\u5f88\u897f\u6b22\u5403\u4e2d\u56fd\u996d\u3002
p1966
(lp1967
(L3L
V\u897f\u6b22
p1968
V\u559c\u6b22
p1969
tp1970
atp1971
a(V\u56e0\u4e3a\u4e2d\u56fd\u53cd\u662f\u5f88\u597d\uff0c\u6240\u4ee5\u5403\u5f97\u5f88\u591a\u6211\u5e38\u5e38\u9519\u5171\u8f66\u53bb\u53f0\u5927\u5403\u4e86\u996d\u3002
p1972
(lp1973
(L5L
V\u4e2d\u56fd\u53cd
p1974
V\u4e2d\u56fd\u996d
p1975
tp1976
a(L19L
V\u9519\u5171\u8f66
p1977
V\u5750\u516c\u8f66
p1978
tp1979
a(L20L
g1977
g1978
tp1980
atp1981
a(V\u6211\u8ddf\u6211\u6cf0\u6cf0\u90fd\u60dc\u6b22\u3002
p1982
(lp1983
(L4L
V\u6cf0\u6cf0
p1984
V\u592a\u592a
p1985
tp1986
a(L5L
g1984
g1985
tp1987
a(L7L
V\u60dc\u6b22
p1988
V\u559c\u6b22
p1989
tp1990
atp1991
a(V\u6211\u8981\u8bcd\u53cd\u3002
p1992
(lp1993
(L3L
V\u8bcd\u53cd
p1994
V\u5403\u996d
p1995
tp1996
a(L4L
g1994
g1995
tp1997
atp1998
a(V\u4f60\u7684\u8eab\u4f53\u53f7\u7801\uff1f
p1999
(lp2000
(L5L
V\u53f7\u7801
p2001
V\u597d\u5417
p2002
tp2003
a(L6L
g2001
g2002
tp2004
atp2005
a(V\u542c\u8bf4\u4f60\u7684\u5176\u672b\u8003\u5df2\u7ecf\u8003\u5b8c\u4e86\uff0c\u4f60\u6709\u6ca1\u6709\u65f6\u95f4\u8ddf\u6211\u4e00\u8d77\u53bb\u5403\u996d\uff1f
p2006
(lp2007
(L5L
V\u5176\u672b\u8003
p2008
V\u671f\u672b\u8003
p2009
tp2010
atp2011
a(V\u6211\u660e\u5929\u56db\u70b9\u6709\u7a7a\uff0c\u4f60\u5462\uff1f\u60f3\u4e0d\u60f3\u5403\u53f0\u6e7e\u91c7\uff1f
p2012
(lp2013
(L18L
V\u53f0\u6e7e\u91c7
p2014
V\u53f0\u6e7e\u83dc
p2015
tp2016
atp2017
a(V\u653f\u6cbb\u5927\u5b66\u7684\u5bf9\u9762\u6709\u4e00\u5bb6\u5f88\u6709\u540d\u7684\u9910\u5385\uff0c\u4ed6\u4eec\u7684\u91c7\u76d8\u76d8\u90fd\u597d\u5403\uff0c\u6211\u4eec\u53bb\u90a3\u8fb9\u5427\uff01
p2018
(lp2019
(L21L
V\u4ed6\u4eec\u7684\u91c7
p2020
V\u4ed6\u4eec\u7684\u83dc
p2021
tp2022
atp2023
a(V\u4f60\u8bbe\u4e48\u5931\u706b\u6709\u7a7a\uff1f\u6211\u8981\u8bf7\u4f60\u6211\u5bb6\u5403\u97e9\u56fd\u7684\u5305\u5b50\u3002
p2024
(lp2025
(L2L
V\u8bbe\u4e48
p2026
V\u4ec0\u4e48
p2027
tp2028
a(L4L
V\u5931\u706b
p2029
V\u65f6\u5019
p2030
tp2031
a(L5L
g2029
g2030
tp2032
atp2033
a(V\u8981\u5931\u6709\u7a7a\u65f6\u540e\u6211\u4eec\u90fd\u5403\u996d\u5417\uff1f
p2034
(lp2035
(L2L
V\u8981\u5931
p2036
V\u8981\u662f
p2037
tp2038
a(L6L
V\u65f6\u540e
p2039
V\u65f6\u5019
p2040
tp2041
atp2042
a(V\u4e0b\u4e2a\u661f\u671f\u662f\u6211\u7684\u751f\u65e5\u5171\u559c\u3002
p2043
(lp2044
(L10L
V\u5171\u559c
p2045
V\u606d\u559c
p2046
tp2047
atp2048
a(V\u6211\u8981\u5403\u65e5\u672c\u8521\u3002
p2049
(lp2050
(L6L
V\u65e5\u672c\u8521
p2051
V\u65e5\u672c\u83dc
p2052
tp2053
atp2054
a(V\u660e\u5929\u662f\u6211\u7684\u751f\u65e5\uff0c\u6240\u4ee5\u6211\u4eec\u8981\u53bb\u9910\u8ba2\u5403\u996d\u3002
p2055
(lp2056
(L16L
V\u9910\u8ba2
p2057
V\u9910\u5385
p2058
tp2059
atp2060
a(V\u6700\u8fd1\u4e0a\u8bfe\u597d\u5417\uff1f\u516c\u8bfe\u4f1a\u4e0d\u4f1a\u5f88\u96be\uff1f
p2061
(lp2062
(L8L
V\u516c\u8bfe
p2063
V\u529f\u8bfe
p2064
tp2065
atp2066
a(V\u4e0b\u793c\u62dc\u4e94\u4e0b\u5348\u5341\u4e8c\u70b9\u5341\u5206\u5728\u5b66\u6821\u5927\u4eec\u53e3\u89c1\u9762\uff01
p2067
(lp2068
(L16L
V\u5927\u4eec\u53e3
p2069
V\u5927\u95e8\u53e3
p2070
tp2071
atp2072
a(V\u6211\u4e0b\u4e2a\u793c\u62dc\u4e94\u8981\u56de\u56fd\u4e86\u60f3\u8bf7\u4f60\u5403\u4e2a\u665a\u9910\u3001\u804a\u804a\u5929\uff0c\u4e0d\u77e5\u9053\u4f60\u8fd9\u4e2a\u793c\u62dc\u5929\u6709\u6ca1\u6709\u63a7\u5462\uff1f
p2073
(lp2074
(L35L
V\u6709\u6ca1\u6709\u63a7
p2075
V\u6709\u6ca1\u6709\u7a7a
p2076
tp2077
atp2078
a(V\u8003\u8bd5\u4e00\u540e\uff0c\u6211\u4eec\u518d\u5b66\u6821\u95e8\u53e3\u89c1\u9762\uff0c\u7136\u540e\u6211\u4eec\u53ef\u4ee5\u4e00\u8d77\u53bb\u5403\u996d\u3002
p2079
(lp2080
(L3L
V\u4e00\u540e
p2081
V\u4ee5\u540e
p2082
tp2083
a(L8L
V\u518d\u5b66\u6821\u95e8\u53e3
p2084
V\u5728\u5b66\u6821\u95e8\u53e3
p2085
tp2086
atp2087
a(V\u524d\u5929\u4f60\u5218\u4fe1\u7ed9\u6211\u8bf4\u4f60\u95e8\u5927\u5b66\u8003\u8bd5\u73a9\u4e86\u3002
p2088
(lp2089
(L4L
V\u5218\u4fe1
p2090
V\u7559\u4fe1
p2091
tp2092
a(L10L
V\u4f60\u95e8
p2093
V\u4f60\u4eec
p2094
tp2095
a(L15L
V\u73a9\u4e86
p2096
V\u5b8c\u4e86
p2097
tp2098
atp2099
a(V\u516d\u6839\u793c\u62dc\u65e5\u665a\u4e0a\u4ed6\u5728\u53f0\u5317\u4e0a\u4e2d\u6587\u8bfe\u3002
p2100
(lp2101
(L2L
V\u516d\u6839\u793c\u62dc\u65e5
p2102
V\u516d\u8ddf\u793c\u62dc\u65e5
p2103
tp2104
atp2105
a(V\u4ed6\u867d\u7136\u8fd8\u6ca1\u5b66\u8fc7\u4e00\u70b9\u4e2d\u6587\uff0c\u53ef\u662f\u5f88\u6c38\u6562\u7684\u4e00\u4e2a\u4eba\u53bb\u53f0\u6e7e\u3002
p2106
(lp2107
(L16L
V\u6c38\u6562
p2108
V\u52c7\u6562
p2109
tp2110
atp2111
a(V\u8f9b\u4e8f\u4ed6\u6765\u53f0\u6e7e\u524d\uff0c\u5df2\u7ecf\u51c6\u5907\u4e86\u4e00\u4e2a\u53f0\u6e7e\u7684\u5730\u56fe\u3002
p2112
(lp2113
(L1L
V\u8f9b\u4e8f
p2114
V\u5e78\u4e8f
p2115
tp2116
atp2117
a(V\u7136\u540e\u4ed6\u8bd5\u8bd5\u770b\u7528\u82f1\u6587\u95ee\u4e00\u4e2a\u53f0\u6e7e\u7684\u5c0f\u59d0\uff0c\u5f88\u8f9b\u4e8f\u5979\u542c\u5f97\u61c2\u82f1\u6587\u3002
p2118
(lp2119
(L20L
V\u8f9b\u4e8f
p2120
V\u5e78\u4e8f
p2121
tp2122
atp2123
a(V\u8981\u4e00\u4e2a\u65b0\u751f\u4ed6\u53eb\u5927\u660e\u3002
p2124
(lp2125
(L1L
V\u8981\u4e00\u4e2a
p2126
V\u6709\u4e00\u4e2a
p2127
tp2128
atp2129
a(V\u4ed6\u4ece\u5317\u6295\u6377\u8fd0\u7ad9\u5750\u6377\u8fd0\u5230\u4f30\u505c\u7ad9\u3002
p2130
(lp2131
(L12L
V\u4f30\u505c\u7ad9
p2132
V\u53e4\u4ead\u7ad9
p2133
tp2134
a(L13L
g2132
g2133
tp2135
atp2136
a(V\u5230\u4e86\u4e00\u540e\u4ed6\u5c31\u8d70\u8def\uff0c\u53ef\u662f\u4ed6\u8981\u4e00\u4e2a\u95ee\u9898\u4ed6\u4e0d\u77e5\u9053\u5230\u5b66\u6821\u600e\u4e48\u53bb\u3002
p2137
(lp2138
(L3L
V\u4e00\u540e
p2139
V\u4ee5\u540e
p2140
tp2141
a(L13L
V\u8981\u4e00\u4e2a
p2142
V\u6709\u4e00\u4e2a
p2143
tp2144
atp2145
a(V\u5230\u4e86\u4ed6\u7684\u6559\u5ba4\u5979\u5c31\u5750\u5728\u6700\u524d\u9762\u7684\u5f02\u5b50\u706f\u5854\u7684\u8001\u5e08\u8fd1\u6765\u3002
p2146
(lp2147
(L15L
V\u5f02\u5b50
p2148
V\u6905\u5b50
p2149
tp2150
a(L17L
V\u706f\u5854\u7684\u8001\u5e08
p2151
V\u7b49\u4ed6\u7684\u8001\u5e08
p2152
tp2153
a(L18L
g2151
g2152
tp2154
a(L22L
V\u8fd1\u6765
p2155
V\u8fdb\u6765
p2156
tp2157
atp2158
a(V\u7b49\u4e94\u5206\u949f\u4ed6\u7684\u8001\u662f\u5c31\u8fd1\u6765\uff0c\u5927\u660e\u8ddf\u4ed6\u7684\u8001\u5e08\u5f88\u9ad8\u5174\uff0c\u56e0\u4e3a\u5b83\u7684\u8001\u5e08\u662f\u5728\u8def\u4e0a\u5927\u660e\u95ee\u7684\u5c0f\u59d0\u3002
p2159
(lp2160
(L8L
V\u8001\u662f
p2161
V\u8001\u5e08
p2162
tp2163
a(L10L
V\u8fd1\u6765
p2164
V\u8fdb\u6765
p2165
tp2166
a(L26L
V\u5b83\u7684\u8001\u5e08
p2167
V\u4ed6\u7684\u8001\u5e08
p2168
tp2169
atp2170
a(V\u4ed6\u771f\u7684\u5f88\u80e1\u6d82\uff0c\u56e0\u4e3a\u4ed6\u8fd8\u4e0d\u4f1a\u8bf4\u4e2d\u6587\u3002
p2171
(lp2172
(L5L
V\u80e1\u6d82
p2173
V\u7cca\u6d82
p2174
tp2175
atp2176
a(V\u6240\u4ee5\u6bcf\u5929\u4e0a\u8bfe\u827e\u4f26\u90fd\u9ad8\u9ad8\u5174\u5174\u5f97\u5b66\u4e2d\u6587\u3002
p2177
(lp2178
(L14L
V\u9ad8\u9ad8\u5174\u5174\u5f97
p2179
V\u9ad8\u9ad8\u5174\u5174\u5730
p2180
tp2181
atp2182
a(V\u90a3\u4f4d\u5e2e\u6211\u627e\u5230\u5b66\u6821\u7684\u5c0f\u59d0\u539f\u6765\u662f\u6211\u7684\u4e2d\u6587\u8001\u5e08\uff01\u771f\u5de7\u5455\uff01
p2183
(lp2184
(L24L
V\u771f\u5de7\u5455
p2185
V\u771f\u5de7\u5594
p2186
tp2187
atp2188
a(V\u611f\u8c22\u7b49\u4e94\u5206\u4ee5\u540e\uff0c\u78b0\u5230\u4e00\u4f4d\u5f88\u68d2\u7684\u5974\u751f\u8ddf\u6211\u53ef\u804a\u3002
p2189
(lp2190
(L16L
V\u5974\u751f
p2191
V\u5973\u751f
p2192
tp2193
atp2194
a(V\u8fd9\u57ce\u5e02\u5f88\u5c11\u5bf9\u4e0d\u5bf9\uff1f
p2195
(lp2196
(L5L
V\u5f88\u5c11
p2197
V\u5f88\u5c0f
p2198
tp2199
atp2200
a(V\u7b2c\u4e00\u5929\u4e0d\u9519\u6211\u5f88\u8f7b\u677e\uff0c\u6211\u65b0\u7684\u4e2d\u6587\u8001\u5e08\u662f\u6211\u597d\u670b\u6709\uff0c\u8fd8\u6709\u6211\u7d27\u5f20\u7684\u611f\u89c9\u7ed3\u675f\u4e86\u3002
p2201
(lp2202
(L22L
V\u597d\u670b\u6709
p2203
V\u597d\u670b\u53cb
p2204
tp2205
atp2206
a(V\u53ef\u662f\u6211\u770b\u5730\u56fe\u7684\u65f6\u5019\u5728\u54ea\u91cc\u6709\u597d\u5403\u7684\u9910\u5385\u3001\u5728\u90a3\u91cc\u6709\u5f88\u6709\u540d\u7684\u516c\u56ed\u90fd\u770b\u4e0d\u61c2\u3002
p2207
(lp2208
(L21L
V\u90a3\u91cc
p2209
V\u54ea\u91cc
p2210
tp2211
atp2212
a(V\u539f\u6765\u5979\u662f\u4e0a\u6b21\u6211\u8ff7\u8def\u7684\u65f6\u5019\u5e2e\u6211\u7684\u5973\u751f\u3002\u771f\u5de7\u3002\u6211\u8ddf\u4ed6\u8bf4\u4e0a\u6b21\u5f88\u8c22\u8c22\u59b3\u3002
p2213
(lp2214
(L24L
V\u6211\u8ddf\u4ed6\u8bf4
p2215
V\u6211\u8ddf\u5979\u8bf4
p2216
tp2217
atp2218
a(V\u521a\u6765\u53f0\u6e7e\u7684\u65f6\u5019\uff0c\u6211\u4ec0\u4e48\u90fd\u4e0d\u77e5\u5230\uff0c\u56e0\u4e3a\u6211\u6ca1\u5b66\u8fc7\u4e2d\u6587\u6240\u4ee5\u6211\u4e0d\u4f1a\u770b\u3001\u8bf4\u4e2d\u6587\u5b57\u3002
p2219
(lp2220
(L16L
V\u4e0d\u77e5\u5230
p2221
V\u4e0d\u77e5\u9053
p2222
tp2223
atp2224
a(V\u8001\u5e08\u8bf4\u300c\u4f60\u73b0\u5728\u5728\u83ab\u65af\u6c49\u5821\uff0c\u4f60\u8981\u5f80\u540e\u4e00\u76f4\u8d70\u5c31\u5230\u4e86\u300d\u3002
p2225
(lp2226
(L9L
V\u83ab\u65af\u6c49\u5821
p2227
V\u6469\u65af\u6c49\u5821
p2228
tp2229
atp2230
a(V\u4eca\u5929\u5bf9\u5927\u4f1f\u6765\u8bf4\uff0c\u4e0d\u53ef\u671b\u8fd9\u4e48\u597d\u7684\u8001\u5e08\u3002
p2231
(lp2232
(L11L
V\u4e0d\u53ef\u671b
p2233
V\u4e0d\u53ef\u5fd8
p2234
tp2235
atp2236
a(V\u4ed6\u8981\u53bb\u4e2d\u6587\u58f3\u53ef\u662f\u4e0d\u600e\u5230\u54ea\u91cc\u3002
p2237
(lp2238
(L6L
V\u4e2d\u6587\u58f3
p2239
V\u4e2d\u6587\u8bfe
p2240
tp2241
atp2242
a(V\u4ed6\u95ee\u4e00\u4e2a\u5c0f\u59d0\u68d2\u4ed6\u3002
p2243
(lp2244
(L7L
V\u68d2\u4ed6
p2245
V\u5e2e\u4ed6
p2246
tp2247
atp2248
a(V\u5854\u8bf4\u90a3\u4fbf\u662f\u4e8f\u5feb\u7684\u8def\u3002
p2249
(lp2250
(L1L
V\u5854\u8bf4
p2251
V\u4ed6\u8bf4
p2252
tp2253
a(L4L
V\u90a3\u4fbf
p2254
V\u90a3\u8fb9
p2255
tp2256
a(L6L
V\u4e8f\u5feb
p2257
V\u6700\u5feb
p2258
tp2259
atp2260
a(V\u5979\u5230\u6765\u4ed6\u7684\u5ba2\u770b\u8001\u662f\uff0c\u4ed6\u8bf4\u8d70\u8def\u5f88\u5feb\u6240\u4ee5\u4ed6\u5f88\u7d2f\u3002
p2261
(lp2262
(L6L
V\u4ed6\u7684\u5ba2
p2263
V\u4ed6\u7684\u8bfe
p2264
tp2265
a(L9L
V\u8001\u662f
p2266
V\u8001\u5e08
p2267
tp2268
atp2269
a(V\u8001\u662f\u8bf4\u6ca1\u5173\u559c\u4e0d\u7473\u80ce\u591a\u3002
p2270
(lp2271
(L2L
V\u8001\u662f
p2272
V\u8001\u5e08
p2273
tp2274
a(L6L
V\u6ca1\u5173\u559c
p2275
V\u6ca1\u5173\u7cfb
p2276
tp2277
a(L8L
V\u4e0d\u7473\u80ce\u591a
p2278
V\u4e0d\u8bf4\u592a\u591a
p2279
tp2280
a(L9L
g2278
g2279
tp2281
atp2282
a(V\u4ed6\u8bf4\u60a8\u597d\uff0c\u53ef\u662f\u8001\u662f\u8bf4\u9519\uff0c\u5854\u8bf4\u5b66\u751f\u5f71\u8be5\u8bf4\u4f60\u597d\u3002
p2283
(lp2284
(L13L
V\u5854\u8bf4
p2285
V\u4ed6\u8bf4
p2286
tp2287
a(L17L
V\u5f71\u8be5
p2288
V\u5e94\u8be5
p2289
tp2290
atp2291
a(V\u4ed6\u5ea7\u6377\u8fd0\u5230\u5b66\u6821\u7684\u9644\u8fd1\u7ad9\uff0c\u4f46\u662f\u4e0b\u4e86\u8f66\u4ee5\u540e\u4ed6\u8ff7\u8def\u4e86\u3002
p2292
(lp2293
(L2L
V\u5ea7\u6377\u8fd0
p2294
V\u5750\u6377\u8fd0
p2295
tp2296
atp2297
a(V\u90a3\u65f6\u5019\u4ed6\u770b\u5230\u4e00\u4e2a\u5973\u751f\uff0c\u4ed6\u9a6c\u4e0a\u95ee\u5979\u5230\u5b66\u6821\u600e\u569c\u8d70\u3002
p2298
(lp2299
(L21L
V\u600e\u569c\u8d70
p2300
V\u600e\u4e48\u8d70
p2301
tp2302
atp2303
a(V\u5979\u662f\u4ed6\u7684\u4e2d\u6587\u8001\u5e08\uff0c\u4ed6\u4eec\u90fd\u5403\u51c9\u4e86\u3002
p2304
(lp2305
(L14L
V\u5403\u51c9
p2306
V\u5403\u60ca
p2307
tp2308
atp2309
a(V\u6709\u4e00\u4e2a\u7f8e\u56fd\u5b66\u751f\uff0c\u53eb\u505a\u5927\u536b\u3002\u5188\u6765\u53f0\u6e7e\u4e09\u5929\u800c\u5df2\u3002
p2310
(lp2311
(L14L
V\u5188\u6765
p2312
V\u521a\u6765
p2313
tp2314
atp2315
a(V\u4eca\u5929\u4ed6\u5f88\u65e9\u5c31\u8d77\u6765\uff0c\u56e0\u4e3a\u4ed6\u4e0d\u77e5\u9053\u5b66\u6821\u5728\u90a3\u91cc\uff1f
p2316
(lp2317
(L19L
V\u90a3\u91cc
p2318
V\u54ea\u91cc
p2319
tp2320
atp2321
a(V\u62ff\u7740\u5730\u56fe\uff0c\u80cc\u7740\u5305\u52c7\u6562\u5f97\u95ee\u5b66\u6821\u7684\u5730\u5740\u3002
p2322
(lp2323
(L11L
V\u52c7\u6562\u5f97
p2324
V\u52c7\u6562\u5730
p2325
tp2326
atp2327
a(V\u5230\u4e86\u5b66\u6821\u4ee5\u540e\uff0c\u8fdb\u53bb\u642c\u4e0a\u5927\u536b\u9a6c\u4e0a\u5750\u7740\uff0c\u56e0\u4e3a\u6709\u7591\u70b9\u80cc\u5305\u4e5f\u653e\u5728\u684c\u4e0a\u3002
p2328
(lp2329
(L10L
V\u642c\u4e0a
p2330
V\u73ed\u4e0a
p2331
tp2332
a(L22L
V\u6709\u7591\u70b9
p2333
V\u6709\u4e00\u70b9
p2334
tp2335
atp2336
a(V\u6211\u89c9\u5f97\u4e2d\u56fd\u5b50\u592a\u96be\uff0c\u4e0d\u8fc7\u5f88\u6709\u610f\u601d\u3002
p2337
(lp2338
(L6L
V\u4e2d\u56fd\u5b50
p2339
V\u4e2d\u56fd\u5b57
p2340
tp2341
atp2342
a(V\u53ef\u4ee5\u5728\u4e00\u6b21\u770b\u90a3\u4e2a\u5c0f\u59d0\uff0c\u5fb7\u4f1f\u4f77\u9ad8\u5174\u4e86\u3002
p2343
(lp2344
(L3L
V\u5728\u4e00\u6b21
p2345
V\u518d\u4e00\u6b21
p2346
tp2347
atp2348
a(V\u6211\u521a\u521a\u6765\u53f0\u5317\u7684\u65f6\u540e\uff0c\u90a3\u91cc\u90fd\u4e0d\u77e5\u9053\u3002
p2349
(lp2350
(L9L
V\u65f6\u540e
p2351
V\u65f6\u5019
p2352
tp2353
a(L11L
V\u90a3\u91cc
p2354
V\u54ea\u91cc
p2355
tp2356
atp2357
a(V\u4e0a\u8bfe\u5f00\u59cb\u65f6\uff0c\u4eca\u5929\u5e2e\u6211\u5fd9\u7684\u5973\u751f\u5c31\u5230\u6559\u5ba4\u8fd1\u6765\u4e86\u3002
p2358
(lp2359
(L19L
V\u8fd1\u6765
p2360
V\u8fdb\u6765
p2361
tp2362
atp2363
a(V\u6211\u8ddf\u6211\u7684\u98ce\u53cb\u5b66\u4e2d\u6587\u3002
p2364
(lp2365
(L5L
V\u98ce\u53cb
p2366
V\u670b\u53cb
p2367
tp2368
atp2369
a(V\u6211\u4f5c\u5929\u5b66\u4e2d\u6587\u5230\u665a\u4e0a\u5341\u70b9\u3002
p2370
(lp2371
(L2L
V\u4f5c\u5929
p2372
V\u6628\u5929
p2373
tp2374
atp2375
a(V\u56e0\u4e3a\u4ed6\u8d70\u5929\u624d\u5230\u53f0\u5317\u6765\uff0c\u6240\u4ee5\u4ed6\u4e0d\u77e5\u9053\u600e\u569c\u53bb\u5b66\u6821\u3002
p2376
(lp2377
(L4L
V\u8d70\u5929
p2378
V\u6628\u5929
p2379
tp2380
a(L19L
V\u600e\u569c
p2381
V\u600e\u4e48
p2382
tp2383
atp2384
a(V\u867d\u7136\u4ed6\u6709\u5730\u56fe\u53ef\u662f\u6ca1\u4ec0\u4e48\u5e2e\u52a9\u8fd8\u627e\u4e0d\u5230\u5b66\u6821\u3002\u8981\u95ee\u522b\u4eba\u4ed6\u4eec\u4e0d\u4f1a\u8bf4\u82f1\u6587\u5f88\u6e56\u6d82\u5566\uff01
p2385
(lp2386
(L33L
V\u6e56\u6d82
p2387
V\u7cca\u6d82
p2388
tp2389
atp2390
a(V\u5979\u544a\u8bc9\u4ed6\u5b66\u6821\u7684\u8def\u9053\uff0c\u600e\u569c\u53bb\u6bd4\u8f83\u5feb\u5230\u5b66\u6821\u53bb\u3002
p2391
(lp2392
(L12L
V\u600e\u569c
p2393
V\u600e\u4e48
p2394
tp2395
atp2396
a(V\u540e\u6765\u8001\u662f\u8fdb\u53bb\uff0c\u5979\u4e00\u78b0\u5230\u8001\u5e08\u5c31\u7b11\u8d77\u6765\u4e86\u3002
p2397
(lp2398
(L4L
V\u8001\u662f
p2399
V\u8001\u5e08
p2400
tp2401
atp2402
a(V\u65e9\u77e5\u9053\u4ed6\u662f\u8001\u662f\uff0c\u8bf4\u4e0d\u5b9a\u53ef\u4ee5\u8ddf\u4ed6\u4e00\u8d77\u6765\u5b66\u6821\uff0c\u4ed6\u5f88\u9ad8\u5174\u8001\u662f\u5bf9\u4ed6\u975e\u5e38\u597d\u3002
p2403
(lp2404
(L7L
V\u8001\u662f
p2405
V\u8001\u5e08
p2406
tp2407
a(L27L
g2405
g2406
tp2408
atp2409
a(V\u53f0\u6e7e\u751f\u6d3b\u8ba9\u4ed6\u6253\u5f00\u773c\u955c\u77e5\u9053\u5f88\u591a\u522b\u7684\u56fd\u5bb6\u7684\u793e\u4f1a\u4e8b\u60c5\uff0c\u5f88\u771f\u5f97\u3002
p2410
(lp2411
(L26L
V\u771f\u5f97
p2412
V\u503c\u5f97
p2413
tp2414
atp2415
a(V\u73b0\u5728\u6211\u4ece\u706b\u8f66\u7ad9\u8981\u53bb\u5b66\u6821\u5b66\u4e2d\u6587\uff0c\u53ef\u662f\u6211\u4e0d\u77e5\u9053\uff0c\u5b66\u6821\u5728\u54ea\u7406\u3002
p2416
(lp2417
(L27L
V\u54ea\u7406
p2418
V\u54ea\u91cc
p2419
tp2420
atp2421
a(V\u6211\u89c9\u5f97\u4ed6\u7968\u4eae\u5f97\u5f88\u3002
p2422
(lp2423
(L5L
V\u7968\u4eae
p2424
V\u6f02\u4eae
p2425
tp2426
atp2427
a(V\u4e0a\u8bfe\u4e00\u540e\uff0c\u6211\u771f\u7684\u5f88\u9ad8\u5174\u56e0\u4e3a\u6211\u7684\u8001\u5e08\u662f\u4e00\u524d\u7684\u90a3\u4e2a\u5c0f\u59d0\u3002
p2428
(lp2429
(L3L
V\u4e00\u540e
p2430
V\u4ee5\u540e
p2431
tp2432
a(L19L
V\u4e00\u524d
p2433
V\u4ee5\u524d
p2434
tp2435
atp2436
a(V\u4ed6\u53c8\u9ad8\u53c8\u53d7\uff0c\u6709\u7ea2\u989c\u8272\u7684\u5934\u53d1\uff0c\u84dd\u989c\u8272\u7684\u773c\u775b\u3002
p2437
(lp2438
(L5L
V\u53c8\u9ad8\u53c8\u53d7
p2439
V\u53c8\u9ad8\u53c8\u7626
p2440
tp2441
atp2442
a(V\u4ed6\u4e5f\u4e0d\u77e5\u9053\u8fd9\u4e48\u642d\u6377\u8fd0\uff0c\u7ed3\u679c\uff0c\u5927\u536b\u5316\u4e86\u534a\u4e2a\u5c0f\u65f6\u8d70\u6765\u8d70\u53bb\u3002
p2443
(lp2444
(L17L
V\u5316\u4e86\u534a\u4e2a\u5c0f\u65f6
p2445
V\u82b1\u4e86\u534a\u4e2a\u5c0f\u65f6
p2446
tp2447
atp2448
a(V\u4ed6\u8ddf\u90a3\u4f4d\u5c0f\u59d0\u9053\u8c22\uff0c\u5c31\u6746\u5feb\u53bb\u4e0a\u8bfe\u3002
p2449
(lp2450
(L11L
V\u6746\u5feb
p2451
V\u8d76\u5feb
p2452
tp2453
atp2454
a(V\u4eca\u5929\u4ed6\u5b66\u4e60\u7684\u5f88\u6109\u5feb\u3002
p2455
(lp2456
(L6L
V\u5b66\u4e60\u7684\u5f88\u6109\u5feb
p2457
V\u5b66\u4e60\u5f97\u5f88\u6109\u5feb
p2458
tp2459
atp2460
a(V\u8fdb\u5927\u697c\u91cc\u9762\u7684\u65f6\u5019\uff0c\u6211\u518d\u89c1\u9762\u5979\uff0c\u6211\u5f88\u9ad8\u5fc3\u3002
p2461
(lp2462
(L19L
V\u9ad8\u5fc3
p2463
V\u9ad8\u5174
p2464
tp2465
atp2466
a(V\u4f60\u662f\u6211\u7684\u5b66\u751f\u963f\uff1f
p2467
(lp2468
(L7L
V\u963f
p2469
V\u554a
p2470
tp2471
atp2472
a(V\u6211\u5df2\u7ecf\u81ea\u5df1\u80fd\u5230\u516c\u9986\u6377\u8fd0\u7ad9\u4e86\uff0c\u53ef\u662f\u770b\u5730\u56fe\u4e5f\u90fd\u770b\u4e0d\u61c2\u600e\u5417\u53bb\u5b66\u6821
p2473
(lp2474
(L26L
V\u600e\u5417
p2475
V\u600e\u4e48
p2476
tp2477
atp2478
a(V\u5979\u6559\u6211\u600e\u5417\u53bb\u5b66\u6821\u4e86\u3002
p2479
(lp2480
(L5L
V\u600e\u5417
p2481
V\u600e\u4e48
p2482
tp2483
atp2484
a(V\u4f60\u4e00\u76f4\u8d70\u5230\u4e86\u7b2c\u4e8c\u4e2a\u5341\u5b50\u8def\u53e3\u53f3\u4e13\u5c31\u5230\u4e86\u3002
p2485
(lp2486
(L11L
V\u5341\u5b50\u8def\u53e3
p2487
V\u5341\u5b57\u8def\u53e3
p2488
tp2489
a(L15L
V\u53f3\u4e13
p2490
V\u53f3\u8f6c
p2491
tp2492
atp2493
a(V\u4ed6\u4e3b\u610f\u90a3\u4e2a\u4eba\u8bf4\u7684\u8bdd\u5c31\u5230\u4e86\u3002
p2494
(lp2495
(L2L
V\u4e3b\u610f
p2496
V\u6ce8\u610f
p2497
tp2498
atp2499
a(V\u56e0\u4e3a\u90a3\u4e2a\u65f6\u5019\u662f\u7b2c\u4e00\u6b21\u4e0a\u8bfe\uff0c\u6240\u4ee5\u4ed6\u770b\u8d77\u6765\u8ddf\u8001\u5e08\u4e0d\u5f00\u65b9\u3002
p2500
(lp2501
(L25L
V\u5f00\u65b9
p2502
V\u5f00\u653e
p2503
tp2504
atp2505
a(V\u6211\u6253\u7b97\u53bb\u9910\u5385\u4e70\u725b\u8089\uff0c\u53ef\u662f\u6211\u4e0d\u77e5\u9053\u53bb\u54ea\u91cc\u4e70\uff0c\u6211\u542c\u8bf4\u5728\u7231\u4e70\u6709\u4e70\u3002
p2506
(lp2507
(L29L
V\u6709\u4e70
p2508
V\u6709\u5356
p2509
tp2510
atp2511
a(V\u5728\u7edc\u4e0a\u6211\u78b0\u5230\u6211\u7684\u597d\u670b\u53cb\uff0c\u4ed6\u77e5\u9053\u6211\u6253\u7b97\u4e70\u725b\u8089\uff0c\u4ed6\u9001\u6211\u4e00\u5305\u725b\u8089\u3002
p2512
(lp2513
(L2L
V\u7edc\u4e0a
p2514
V\u8def\u4e0a
p2515
tp2516
atp2517
a(V\u6211\u5988\u5988\u5f88\u606f\u7f13\u559d\u53f0\u6e7e\u7684\u8336\u548c\u8863\u670d\u3002
p2518
(lp2519
(L5L
V\u606f\u7f13
p2520
V\u559c\u6b22
p2521
tp2522
a(L6L
g2520
g2521
tp2523
atp2524
a(V\u6211\u59b9\u59b9\u60f3\u8981\u4e2a\u4ea4\u76f8\u673a\u548c\u4e00\u5bf9\u65b0\u6954\u5b50\u3002
p2525
(lp2526
(L7L
V\u4ea4\u76f8\u673a
p2527
V\u7167\u76f8\u673a
p2528
tp2529
a(L14L
V\u65b0\u6954\u5b50
p2530
V\u65b0\u978b\u5b50
p2531
tp2532
atp2533
a(V\u7f8e\u56fd\u73b0\u5728\u5f88\u51b7\uff0c\u8bf7\u529e\u6211\u4e70\u4ef6\u96ea\u8863\u3002
p2534
(lp2535
(L9L
V\u8bf7\u529e\u6211
p2536
V\u8bf7\u5e2e\u6211
p2537
tp2538
atp2539
a(V\u8fd9\u91cc\u7684\u516c\u8f66\u662f\uff0c\u5e94\u8be5\uff15\u4e2a\u5c0f\u65f6\u4e00\u73ed\u963f\uff01
p2540
(lp2541
(L16L
V\u963f
p2542
V\u554a
p2543
tp2544
atp2545
a(V\u7ed3\u679c\uff0c\u4ed6\u51b3\u5b9a\u8981\u662f\u4e0b\u4e00\u6b21\u53bb\u722c\u4e0a\uff0c\u8ddf\u670b\u53cb\u4e00\u8d77\u53bb\u6bd4\u8f83\u597d\u3002
p2546
(lp2547
(L14L
V\u722c\u4e0a
p2548
V\u722c\u5c71
p2549
tp2550
atp2551
a(V\u5728\u5c71\u4e0a\u6709\u5f88\u591a\u6728\u90fd\u662f\u5f55\u8272\u7684\uff0c\u7a7a\u6c14\u4e5f\u5f88\u597d\u3002
p2552
(lp2553
(L10L
V\u5f55\u8272
p2554
V\u7eff\u8272
p2555
tp2556
atp2557
a(V\u6211\u6253\u7535\u8bdd\u5404\u6211\u5988\u5988\u7238\u7238\u4e5f\u6253\u4e0d\u901a\u3002
p2558
(lp2559
(L5L
V\u5404\u6211\u5988\u5988
p2560
V\u7ed9\u6211\u5988\u5988
p2561
tp2562
atp2563
a(V\u6709\u4e00\u4e2a\u5f00\u7ea2\u8272\u8f66\u7684\u7537\u4eba\uff0c\u4ed6\u770b\u89c1\u6211\u5728\u8def\u8fb9\u4ea4\u9a6c\u4e0a\u505c\u8f66\u3002
p2564
(lp2565
(L19L
V\u4ea4\u9a6c\u4e0a\u505c\u8f66
p2566
V\u53eb\u9a6c\u4e0a\u505c\u8f66
p2567
tp2568
atp2569
a(V\u6211\u8ddf\u5979\u8bf4\u6211\u5df2\u7ecf\u7c73\u4e86\u4e09\u4e2a\u5c0f\u65f6\u8def\u65b0\u6559\u5230\u4e00\u6761\u8def\u3002
p2570
(lp2571
(L8L
V\u7c73\u4e86
p2572
V\u8ff7\u4e86
p2573
tp2574
a(L16L
V\u65b0\u6559\u5230
p2575
V\u65b0\u627e\u5230
p2576
tp2577
atp2578
a(V\u6211\u4eec\u5750\u4e86\u4e09\u5341\u5206\u949f\u8f66\u4ea4\u5230\u4e86\u3002
p2579
(lp2580
(L10L
V\u4ea4\u5230\u4e86
p2581
V\u5c31\u5230\u4e86
p2582
tp2583
atp2584
a(V\u7535\u8bdd\u53f7\u5417\uff1a\uff10\uff19\uff18\uff17\uff0d\uff13\uff13\uff13\uff0d\uff10\uff10\uff14\u3002
p2585
(lp2586
(L4L
V\u53f7\u5417
p2587
V\u53f7\u7801
p2588
tp2589
atp2590
a(V\u6628\u5929\u518d\u56fe\u4e66\u9986\u5916\u9762\u6211\u6389\u4e86\u4e00\u672c\u3002
p2591
(lp2592
(L3L
V\u518d\u56fe\u4e66\u9986
p2593
V\u5728\u56fe\u4e66\u9986
p2594
tp2595
atp2596
a(V\u5b83\u770b\u8d77\u6765\u5f88\u846c\uff0c\u4f46\u662f\u91cc\u9762\u6709\u5f88\u591a\u7167\u7247\u8ba9\u6211\u7eaa\u5ff5\u6211\u7684\u540c\u5b66\u4eec\u3002
p2597
(lp2598
(L6L
V\u5f88\u846c
p2599
V\u5f88\u810f
p2600
tp2601
atp2602
a(V\u5982\u679c\u60a8\u627e\uff0c\u8bf7\u4f60\u8ddf\u674e\u5927\u660e\u8054\u7edc\u6216\u6362\u7ed9\u529e\u516c\u5ba4\u7684\u670d\u52a1\u3002
p2603
(lp2604
(L15L
V\u6362\u7ed9
p2605
V\u8fd8\u7ed9
p2606
tp2607
atp2608
a(V\u6e05\u6d41\u4f60\u7684\u540d\u5b50\u597d\u8ba9\u6211\u8c22\u8c22\u60a8\u3002
p2609
(lp2610
(L1L
V\u6e05\u6d41
p2611
V\u8bf7\u7559
p2612
tp2613
a(L2L
g2611
g2612
tp2614
a(L6L
V\u540d\u5b50
p2615
V\u540d\u5b57
p2616
tp2617
atp2618
a(V\u8fd9\u672c\u4e66\u662f\u4e2d\u6587\u7684\u8bfe\u672c\uff0c\u989c\u8272\u662f\u84dd\u8272\u7684\uff0c\u4e66\u7684\u540e\u9762\u5199\u7740\u6211\u7684\u540d\u5b50\uff0c\u674e\u5927\u660e\u3002
p2619
(lp2620
(L27L
V\u540d\u5b50
p2621
V\u540d\u5b57
p2622
tp2623
atp2624
a(V\u524d\u5929\u6211\u5728\u5b66\u6821\u516c\u56ed\u770b\u4e66\uff0c\u4e0d\u5c0f\u5fc3\u628a\u8f93\u7ed9\u5f04\u4e22\u4e86\u3002
p2625
(lp2626
(L16L
V\u628a\u8f93\u7ed9\u5f04\u4e22
p2627
V\u628a\u4e66\u7ed9\u5f04\u4e22
p2628
tp2629
atp2630
a(V\u6211\u5728\u5e08\u8303\u5927\u5b66\u5ff5\u4e66\uff0c\u64ad\u7231\u5927\u697c\uff15\uff10\uff12\u6559\u5ba4\u3002
p2631
(lp2632
(L10L
V\u64ad\u7231
p2633
V\u535a\u7231
p2634
tp2635
atp2636
a(V\u4eca\u5929\u65e9\u4e0a\u5728\u8fd9\u4e2a\u5927\u6402\u91cc\u5f04\u4e22\u4e86\u6211\u7684\u4e66\u3002
p2637
(lp2638
(L9L
V\u5927\u6402
p2639
V\u5927\u697c
p2640
tp2641
atp2642
a(V\u6211\u628a\u4e00\u672c\u4e66\u5728\u56fe\u4e66\u9986\u4e09\u697c\u7684\u9003\u8bba\u5ba4\u91cc\u5f04\u4e22\u4e86\u3002
p2643
(lp2644
(L13L
V\u9003\u8bba\u5ba4
p2645
V\u8ba8\u8bba\u5ba4
p2646
tp2647
atp2648
a(V\u90a3\u672c\u662f\u7f8e\u56fd\u7684\u577b\u91cc\u3002
p2649
(lp2650
(L7L
V\u577b\u91cc
p2651
V\u5730\u7406
p2652
tp2653
a(L8L
g2651
g2652
tp2654
atp2655
a(V\u5982\u679c\u4f60\u62ff\u5230\u4e86\u8bf7\u4f60\u5947\u7ed9\u6211\u4e00\u5c01\u7b80\u8baf\uff0c\u8fd8\u662f\u6253\u7535\u8bdd\u7ed9\u6211\u3002
p2656
(lp2657
(L9L
V\u5947\u7ed9\u6211
p2658
V\u5bc4\u7ed9\u6211
p2659
tp2660
atp2661
a(V\u4e0a\u4e2a\u6708\u6211\u5ea7\u98de\u673a\u5230\u52a0\u62ff\u5927\u53bb\u4e86\u3002
p2662
(lp2663
(L5L
V\u5ea7\u98de\u673a
p2664
V\u5750\u98de\u673a
p2665
tp2666
atp2667
a(V\u6211\u518d\u673a\u573a\u78b0\u5230\u4e86\u6211\u4e94\u5e74\u524d\u7684\u9ad8\u4e2d\u540c\u5b66\u3002
p2668
(lp2669
(L2L
V\u518d\u673a\u573a
p2670
V\u5728\u673a\u573a
p2671
tp2672
atp2673
a(V\u5979\u957f\u5927\u4e86\u4fbf\u5f88\u5e05\uff01
p2674
(lp2675
(L5L
V\u4fbf\u5f88\u5e05
p2676
V\u53d8\u5f88\u5e05
p2677
tp2678
atp2679
a(V\u5728\u52a0\u62ff\u5927\u7684\u590f\u5929\u592a\u9633\u5f88\u665a\u624d\u4e0b\uff0c\u6240\u4ee5\u6211\u4eec\u53bb\u4e86\u516c\u56ed\u4e00\u8d77\u5efa\u8d70\u3002
p2680
(lp2681
(L25L
V\u5efa\u8d70
p2682
V\u5065\u8d70
p2683
tp2684
atp2685
a(V\u6211\u4eec\u4ee5\u8d77\u5403\u996d\u548c\u6162\u6162\u53d8\u6210\u597d\u670b\u53cb\u3002
p2686
(lp2687
(L3L
V\u4ee5\u8d77
p2688
V\u4e00\u8d77
p2689
tp2690
atp2691
a(V\u4e0b\u4e00\u5929\u4ed6\u966a\u6211\u53bb\u770b\u98ce\u4eac\uff0c\u5e2e\u6211\u6392\u7167\u3002
p2692
(lp2693
(L10L
V\u98ce\u4eac
p2694
V\u98ce\u666f
p2695
tp2696
a(L14L
V\u6392\u7167
p2697
V\u62cd\u7167
p2698
tp2699
atp2700
a(V\u5230\u65e5\u672c\u4ed6\u770b\u89c1\u4ed6\u7684\u670b\u53cb\u817e\u5979\uff0c\u4ed6\u7684\u670b\u53cb\u8bf7\u5979\u4e00\u8d77\u5403\u5348\u996d\u3002
p2701
(lp2702
(L11L
V\u817e\u5979
p2703
V\u7b49\u5979
p2704
tp2705
atp2706
a(V\u4e0b\u5929\u65e9\u4e0a\u5979\u7684\u670b\u53cb\u8bf7\u5979\u53bb\u8def\u884c\uff0c\u4ed6\u4eec\u7167\u5f88\u591a\u50cf\u7247\u3002
p2707
(lp2708
(L12L
V\u8def\u884c
p2709
V\u65c5\u884c
p2710
tp2711
a(L20L
V\u50cf\u7247
p2712
V\u76f8\u7247
p2713
tp2714
atp2715
a(V\u5927\u660e\u8981\u8ddf\u5979\u7684\u7537\u670b\u53cb\u4e00\u5757\u5b8c\u3002
p2716
(lp2717
(L12L
V\u4e00\u5757\u5b8c
p2718
V\u4e00\u5757\u73a9
p2719
tp2720
atp2721
a(V\u4ed6\u4eec\u5728\u9910\u5385\u5403\u597d\u597d\u7684\u83dc\uff0c\u7136\u540e\u5979\u7537\u670b\u53cb\u4ee3\u53bb\u4e0a\u6d77\u6709\u540d\u7684\u5730\u65b9\u3002
p2722
(lp2723
(L18L
V\u4ee3\u53bb
p2724
V\u5e26\u53bb
p2725
tp2726
atp2727
a(V\u6211\u8ddf\u6211\u5973\u670b\u53cb\u5728\u4e00\u8d77\u5df2\u7ecf\u5f88\u5c31\u4e86\u3002
p2728
(lp2729
(L13L
V\u5f88\u5c31
p2730
V\u5f88\u4e45
p2731
tp2732
atp2733
a(V\u56e0\u4e3a\u6211\u60f3\u6b7b\u5979\u4e86\uff0c\u6240\u4ee5\u6885\u5929\u665a\u4e0a\u6211\u7761\u89c9\u4e4b\u524d\uff0c\u6211\u60f3\u8d77\u6765\u5979\u4e0a\u6b21\u6765\u770b\u6211\u3002
p2734
(lp2735
(L11L
V\u6885\u5929
p2736
V\u6bcf\u5929
p2737
tp2738
atp2739
a(V\u4e8c\u5341\u56db\u5c0f\u65f6\u4e4b\u540e\u4ed6\u7ec8\u4e8e\u5230\u4e2d\u6b63\u673a\u573a\u3002
p2740
(lp2741
(L8L
V\u4ed6\u7ec8\u4e8e\u5230\u4e2d\u6b63\u673a\u573a
p2742
V\u5979\u7ec8\u4e8e\u5230\u4e2d\u6b63\u673a\u573a
p2743
tp2744
atp2745
a(V\u6211\u5f88\u671f\u5f85\u4ed6\u4e0b\u4e00\u6b21\u4f1a\u6765\u770b\u6211\u3002
p2746
(lp2747
(L5L
V\u4ed6\u4e0b\u4e00\u6b21\u4f1a\u6765\u770b\u6211
p2748
V\u5979\u4e0b\u4e00\u6b21\u4f1a\u6765\u770b\u6211
p2749
tp2750
atp2751
a(V\u5979\u662f\u91cd\u7f8e\u56fd\u7559\u5b66\u56de\u6765\u7684\u3002
p2752
(lp2753
(L3L
V\u91cd\u7f8e\u56fd
p2754
V\u4ece\u7f8e\u56fd
p2755
tp2756
atp2757
a(V\u5979\u56de\u5230\u5bb6\u5979\u4e5d\u6253\u7535\u8bdd\u7ed9\u4ed6\u7684\u597d\u4e45\u4e0d\u89c1\u7684\u597d\u670b\u53cb\u3002
p2758
(lp2759
(L6L
V\u5979\u4e5d\u6253\u7535\u8bdd
p2760
V\u5979\u5c31\u6253\u7535\u8bdd
p2761
tp2762
atp2763
a(V\u4ed6\u4eec\u7ea6\u5728\u5df2\u524d\u4ed6\u4eec\u53bb\u8fc7\u7684\u90a3\u5bb6\u9910\u5385\u3002
p2764
(lp2765
(L5L
V\u5df2\u524d
p2766
V\u4ee5\u524d
p2767
tp2768
atp2769
a(V\u4eca\u5929\u6211\u7684\u5988\u5988\u8981\u56de\u56fd\uff0c\u4f46\u662f\u65e9\u4e0a\u7761\u89c9\u6240\u4ee5\u8fdf\u5230\u4e86\u98de\u673a\uff0c\u73b0\u5728\u7f8e\u90a6\u6cd5\u3002
p2770
(lp2771
(L27L
V\u7f8e\u90a6\u6cd5
p2772
V\u6ca1\u529e\u6cd5
p2773
tp2774
a(L28L
g2772
g2773
tp2775
atp2776
a(V\u6211\u4eca\u5929\u627e\u8001\u5e08\uff0c\u4f46\u662f\u8001\u662f\u4e0d\u5728\u3002
p2777
(lp2778
(L11L
V\u8001\u662f
p2779
V\u8001\u5e08
p2780
tp2781
atp2782
a(V\u4e0d\u597d\u4ee5\u65f6\uff0c\u6211\u8981\u7ed9\u8001\u5e08\u77e5\u9053\uff0c\u660e\u5929\u6211\u4e0d\u4f1a\u4e0a\u8bfe\u3002
p2783
(lp2784
(L3L
V\u4e0d\u597d\u4ee5\u65f6
p2785
V\u4e0d\u597d\u610f\u601d
p2786
tp2787
a(L4L
g2785
g2786
tp2788
atp2789
a(V\u6211\u7684\u5934\u6709\u7591\u70b9\u85e4\u3002
p2790
(lp2791
(L5L
V\u6709\u7591\u70b9\u85e4
p2792
V\u6709\u4e00\u70b9\u75bc
p2793
tp2794
a(L7L
g2792
g2793
tp2795
atp2796
a(V\u5e0c\u671b\u540e\u5929\u6211\u4f1a\u4e0a\u53ef\u4e86\u3002
p2797
(lp2798
(L8L
V\u4e0a\u53ef
p2799
V\u4e0a\u8bfe
p2800
tp2801
atp2802
a(V\u4eca\u5929\u65e9\u4e0a\u6211\u8981\u627e\u60a8\u53ef\u662f\u60a8\u4e0d\u5728\uff0c\u6240\u4ee5\u6211\u5b66\u7ed9\u60a8\u5728\u4e00\u5f20\u5b50\u3002
p2803
(lp2804
(L18L
V\u5b66\u7ed9
p2805
V\u5199\u7ed9
p2806
tp2807
a(L24L
V\u4e00\u5f20\u5b50
p2808
V\u4e00\u5f20\u7eb8
p2809
tp2810
atp2811
a(V\u6211\u8fd8\u4e0d\u77e5\u9053\u5982\u679c\u8fd9\u4ef6\u4e8b\u662f\u6bcf\u4e00\u4e2a\u91cc\u62dc\u56db\u8ddf\u660e\u5929\u4e00\u6837\uff0c\u53ef\u662f\u6211\u77e5\u9053\u7684\u65f6\u5019\u9a6c\u4e0a\u544a\u8bc9\u60a8\u3002
p2812
(lp2813
(L15L
V\u91cc\u62dc\u56db
p2814
V\u793c\u62dc\u56db
p2815
tp2816
atp2817
a(V\u60a8\u597d\u674e\u4f6c\u65f6\uff0c\u4eca\u5929\u6211\u627e\u60a8\u3002
p2818
(lp2819
(L4L
V\u674e\u4f6c\u65f6
p2820
V\u674e\u8001\u5e08
p2821
tp2822
a(L5L
g2820
g2821
tp2823
atp2824
a(V\u6211\u6709\u660e\u5929\u7684\u5de5\u8bfe\uff0c\u8fd9\u4e2a\u665a\u4e0a\u8bf7\u60a8\u7ed9\u6211\u6253\u7535\u8bdd\u3002
p2825
(lp2826
(L6L
V\u5de5\u8bfe
p2827
V\u529f\u8bfe
p2828
tp2829
atp2830
a(V\u8bf7\u8001\u5e08\u7ed9\u6211\u4e00\u5929\u4f11\u606f\u65f6\u95f4\uff0c\u6211\u4f1a\u4e0a\u8bfe\u5982\u679c\u8eab\u63d0\u597d\u4e86\u3002
p2831
(lp2832
(L20L
V\u8eab\u63d0
p2833
V\u8eab\u4f53
p2834
tp2835
atp2836
a(V\u5dee\u4e0d\u591a\u56db\u70b9\u534a\u6211\u6765\u8fc7\uff0c\u53ef\u4f7f\u4f60\u4e0d\u5728\u8fd9\u3002
p2837
(lp2838
(L12L
V\u53ef\u4f7f
p2839
V\u53ef\u662f
p2840
tp2841
atp2842
a(V\u660e\u5929\u6211\u7ed9\u4f60\u6253\u7535\u8bdd\uff0c\u8bf7\u4f60\u544a\u8bc9\u6211\u6211\u4eec\u7684\u516c\u514b\uff0c\u8c22\u8c22\u3002
p2843
(lp2844
(L18L
V\u516c\u514b
p2845
V\u529f\u8bfe
p2846
tp2847
a(L19L
g2845
g2846
tp2848
atp2849
a(V\u5982\u679c\u6211\u6709\u529f\u8bfe\u7684\u8bdd\uff0c\u6211\u6253\u7b97\u505a\u529f\u8bfe\uff0c\u6211\u8ba9\u540c\u5b66\u6559\uff0c\u6211\u540e\u5929\u7ed9\u4f60\u63d0\u51fa\u3002
p2850
(lp2851
tp2852
a(V\u660e\u5929\u6211\u7684\u7236\u6bcd\u4ece\u65e5\u672c\u6765\u7684\uff0c\u800c\u4e14\u4ed6\u4eec\u7b2c\u4e00\u6b21\u6765\u53f0\u6e7e\uff0c\u6240\u4ee5\u6211\u5e94\u8be5\u8ddf\u7236\u6bcd\u4e00\u8d77\u53bb\u53f0\u5357\u8ddf\u9ad8\u96c4\u7684\u6e38\u89c8\u3002
p2853
(lp2854
tp2855
a(V\u56e0\u4e3a\u540e\u5929\u6211\u6709\u9760\u4e8b\uff0c\u6240\u4ee5\u6211\u8981\u770b\u4e66\u3002
p2856
(lp2857
(L7L
V\u9760\u4e8b
p2858
V\u8003\u8bd5
p2859
tp2860
a(L8L
g2858
g2859
tp2861
atp2862
a(V\u6211\u95e8\u4e0b\u4e2a\u91cc\u4ff3\u624d\u53bb\u770b\u7535\u5f71\u53ef\u4ee5\u5417\uff1f
p2863
(lp2864
(L2L
V\u6211\u95e8
p2865
V\u6211\u4eec
p2866
tp2867
a(L5L
V\u4e0b\u4e2a\u91cc\u4ff3
p2868
V\u4e0b\u4e2a\u793c\u62dc
p2869
tp2870
a(L6L
g2868
g2869
tp2871
atp2872
a(V\u660e\u5929\u6211\u8981\u8ddf\u6211\u5f97\u5988\u5988\u53bb\u516c\u53f8\u4e70\u4e9b\u91cd\u8981\u5f97\u4e1c\u897f\uff0c\u6240\u4ee5\u4e0d\u80fd\u8ddf\u4f60\u4e00\u5757\u513f\u53bb\u3002
p2873
(lp2874
(L17L
V\u91cd\u8981\u5f97\u4e1c\u897f
p2875
V\u91cd\u8981\u7684\u4e1c\u897f
p2876
tp2877
atp2878
a(V\u6211\u4f1a\u5230\u665a\u4e0a\u5341\u70b9\u624d\u56de\u5bb6\uff0c\u6240\u4ee5\u6ca1\u65f6\u95f4\u770b\u7535\u5f71\uff0c\u8bf7\u4f60\u5bee\u89e3\u6211\uff0c\u8c22\u8c22\u3002
p2879
(lp2880
(L23L
V\u5bee\u89e3
p2881
V\u4e86\u89e3
p2882
tp2883
atp2884
a(V\u5982\u679c\u4f60\u8981\u7684\u8bdd\uff0c\u60c5\u4f60\u516b\u70b9\u5230\u6211\u5bb6\u3002
p2885
(lp2886
(L8L
V\u60c5\u4f60
p2887
V\u8bf7\u4f60
p2888
tp2889
atp2890
a(V\u5370\u5c3c\u6709\u4e00\u4e2a\u5730\u65b9\u53eb\u5df4\u9ece\uff0c\u90a3\u8fb9\u7684\u98ce\u666f\u6700\u597d\u770b\u7684\u3002
p2891
(lp2892
(L9L
V\u5df4\u9ece
p2893
V\u5cc7\u91cc
p2894
tp2895
a(L10L
g2893
g2894
tp2896
atp2897
a(V\u52a0\u5dde\u6709\u5f88\u591a\u5e02\u573a\u5356\u5f88\u65b0\u9c9c\u6c34\u679c\uff0c\u800c\u622a\u5356\u5f88\u597d\u7684\uff0c\u4e8c\u624b\u7684\u4e1c\u897f\u771f\u4fbf\u5b9c\u3002
p2898
(lp2899
(L16L
V\u800c\u622a
p2900
V\u800c\u4e14
p2901
tp2902
atp2903
a(V\u4f60\u5e26\u4f60\u7684\u662d\u663e\u673a\u5462\uff0c\u5f97\u4e0d\u5fd8\u4e86\u3002
p2904
(lp2905
(L5L
V\u662d\u663e\u673a
p2906
V\u7167\u76f8\u673a
p2907
tp2908
a(L6L
g2906
g2907
tp2909
atp2910
a(V\u5982\u6269\u4f60\u6709\u4ec0\u4e48\u95ee\u9898\u7ed9\u6211\u6253\u7535\u8bdd\u3002
p2911
(lp2912
(L2L
V\u5982\u6269
p2913
V\u5982\u679c
p2914
tp2915
atp2916
a(V\u6bcf\u4e2a\u7ad9\u90fd\u4e0d\u4e00\u6837\uff0c\u6bcf\u4e2a\u5f88\u7968\u4eae\u3002
p2917
(lp2918
(L12L
V\u7968\u4eae
p2919
V\u6f02\u4eae
p2920
tp2921
atp2922
a(V\u4f60\u53ef\u4ee5\u4f4f\u5728\u6211\u7684\u5bb6\uff0c\u4f60\u53ef\u4ee5\u8ba4\u8bc6\u6211\u7684\u5bb6\u53c8\u770b\u6211\u7684\u591f\u732b\u3002
p2923
(lp2924
(L22L
V\u591f\u732b
p2925
V\u72d7\u732b
p2926
tp2927
atp2928
a(V\u4f60\u53ef\u4ee5\u5403\u6211\u4eec\u6700\u6709\u540d\u7684\u91c7\uff0c\u4e00\u5b9a\u5f88\u597d\u73a9\u3002
p2929
(lp2930
(L11L
V\u6700\u6709\u540d\u7684\u91c7
p2931
V\u6700\u6709\u540d\u7684\u83dc
p2932
tp2933
atp2934
a(V\u6211\u9009\u6765\u6ce2\u6f9c\u7684\u65f6\u95f4\u5f88\u597d\uff0c\u56e0\u4e3a\u4e00\u822c\u6765\u8bf4\u590f\u5929\u7684\u5929\u6c14\u5f88\u597d\u3001\u4ea7\u7684\u6c34\u679c\u548c\u9752\u83dc\u5f88\u591a\uff0c\u597d\u5403\u4e5f\u4fbf\u5b9c\u3002
p2935
(lp2936
(L5L
V\u6ce2\u6f9c
p2937
V\u6ce2\u5170
p2938
tp2939
atp2940
a(V\u4f60\u8bb0\u5f97\u7684\u6211\u4eec\u7684\u6bcd\u8bed\u662f\u897f\u529e\u52a0\u8bdd\uff0c\u53ef\u662f\u670d\u52a1\u751f\u5927\u90e8\u5206\u90fd\u542c\u7684\u61c2\u4e00\u70b9\u70b9\u82f1\u6587\u3002
p2941
(lp2942
(L12L
V\u897f\u529e\u52a0\u8bdd
p2943
V\u897f\u73ed\u7259\u8bdd
p2944
tp2945
a(L13L
g2943
g2944
tp2946
atp2947
a(V\u5728\u53f0\u6e7e\u6709\u7684\u4e1c\u56db\u770b\u8d77\u6765\u5947\u602a\uff0c\u53ef\u662f\u73b0\u5728\u6211\u4e0d\u8981\u8bf4\u3002
p2948
(lp2949
(L7L
V\u4e1c\u56db
p2950
V\u4e1c\u897f
p2951
tp2952
atp2953
a(V\u6211\u6765\u53f0\u5f2f\u624d\u4e00\u4e2a\u591a\u6708\u3002
p2954
(lp2955
(L4L
V\u53f0\u5f2f
p2956
V\u53f0\u6e7e
p2957
tp2958
atp2959
a(V\u6211\u6765\u53f0\u5f2f\u8981\u5b66\u4e2d\u6587\uff0c\u56e0\u4e3a\u4e2d\u6587\u5f88\u4ece\u9080\u3002
p2960
(lp2961
(L4L
V\u53f0\u5f2f
p2962
V\u53f0\u6e7e
p2963
tp2964
a(L15L
V\u4ece\u9080
p2965
V\u91cd\u8981
p2966
tp2967
a(L16L
g2965
g2966
tp2968
atp2969
a(V\u6211\u7684\u5de5\u4f5c\u91cc\u5728\u5370\u5c3c\u6709\u5f88\u591a\u4eba\u4f1a\u8bf4\u534e\u6587\uff0c\u6240\u4ee5\u6211\u4e5f\u8981\u4f1a\u8bf4\u8ddf\u5199\u4e2d\u56fd\u5b50\u3002
p2970
(lp2971
(L29L
V\u4e2d\u56fd\u5b50
p2972
V\u4e2d\u56fd\u5b57
p2973
tp2974
atp2975
a(V\u4e0d\u4e0a\u8bfe\u7684\u65f6\u5019\uff0c\u6211\u5e38\u5e38\u8ddf\u670b\u53cb\u53bb\u73a9\u73a9\uff0c\u770b\u4e00\u770b\u5728\u53f0\u5317\u597d\u770b\u7684\u5730\u65b9\uff0c\u665a\u4e0a\u6211\u5c31\u770b\u4e66\u8ddf\u5b66\u5b50\u3002
p2976
(lp2977
(L38L
V\u5b66\u5b50
p2978
V\u5b66\u5b57
p2979
tp2980
atp2981
a(V\u6211\u5f88\u559c\u6b22\u4e70\u4e1c\u897f\u3001\u5403\u996d\u3001\u5ff5\u4e66\u3001\u94f6\u8463\u3001\u542c\uff2d\uff30\uff13\u3002
p2982
(lp2983
(L15L
V\u94f6\u8463
p2984
V\u8fd0\u52a8
p2985
tp2986
a(L16L
g2984
g2985
tp2987
atp2988
a(V\u6211\u4f4f\u5728\u53f0\u5317\u5df2\u7ecf\u4e00\u5e74\u4e86\uff0c\u800c\u63a5\u5b66\u4e2d\u6587\u5728\u5e08\u5927\u7684\u4e2d\u6587\u4e2d\u5fc3\u7684\u3002
p2989
(lp2990
(L13L
V\u800c\u63a5
p2991
V\u800c\u4e14
p2992
tp2993
atp2994
a(V\u6709\u63a7\u7684\u65f6\u5019\u8ddf\u670b\u53cb\u5e38\u5e38\u53bb\u591c\u5e02\u4e70\u597d\u5403\u7684\u4e1c\u897f\u6216\u662f\u4e70\u597d\u770b\u7684\u8863\u670d\u3002
p2995
(lp2996
(L2L
V\u6709\u63a7
p2997
V\u6709\u7a7a
p2998
tp2999
atp3000
a(V\u6211\u559c\u6b22\u8ddf\u6211\u7684\u670b\u53cb\u4e00\u8d77\u53bb\u770b\u7535\u5f71\uff0c\u771f\u559c\u6b22\u770b\u4e66\uff0c\u8df3\u821e\uff0c\u5531\u6b4c\uff0c\u53bb\u9646\u884c\uff0c\u548c\u542c\u97f3\u4e50\u3002
p3001
(lp3002
(L29L
V\u9646\u884c
p3003
V\u65c5\u884c
p3004
tp3005
atp3006
a(V\u6211\u6765\u8fd9\u8fb9\u5b66\u4e2d\u6587\uff0c\u5fcd\u8bc6\u53f0\u6e7e\u4eba\u7684\u60dc\u8d2f\u3001\u6587\u5316\u3002
p3007
(lp3008
(L9L
V\u5fcd\u8bc6
p3009
V\u8ba4\u8bc6
p3010
tp3011
a(L15L
V\u60dc\u8d2f
p3012
V\u4e60\u60ef
p3013
tp3014
a(L16L
g3012
g3013
tp3015
atp3016
a(V\u5728\u53f0\u6e7e\u6211\u7b2c\u4e00\u6b21\u5fcd\u8bc6\u90a3\u4e48\u4ece\u522b\u7684\u56fd\u5bb6\u6765\u7684\u4eba\uff0c\u800c\u4e14\u4ece\u6765\u6ca1\u6709\u4e3b\u518d\u8bf4\u4e2d\u6587\u7684\u73af\u5883\uff0c\u6240\u4ee5\u8fc7\u4e0d\u4e86\u673a\u5929\u6211\u5c31\u5f00\u59cb\u60f3\u5bb6\u4eba\u4e86\u3002
p3017
(lp3018
(L8L
V\u5fcd\u8bc6
p3019
V\u8ba4\u8bc6
p3020
tp3021
a(L27L
V\u4e3b\u518d
p3022
V\u4f4f\u5728
p3023
tp3024
a(L28L
g3022
g3023
tp3025
a(L41L
V\u673a\u5929
p3026
V\u51e0\u5929
p3027
tp3028
atp3029
a(V\u6211\u6162\u6162\u4e60\u60ef\u53f0\u6e7e\u7684\u751f\u6d3b\uff0c\u5f0f\u5f0f\u770b\u53f0\u6e7e\u91ce\u9910\uff0c\u4e5f\u627e\u7684\u5230\u4e86\u5929\u4e3b\u6559\u7684\u6559\u5802\uff0c\u6240\u4ee5\u53ef\u4ee5\u53bb\u4e2d\u6587\u5f25\u6492\u3002
p3030
(lp3031
(L12L
V\u5f0f\u5f0f\u770b
p3032
V\u8bd5\u8bd5\u770b
p3033
tp3034
a(L13L
g3032
g3033
tp3035
a(L22L
V\u627e\u7684\u5230
p3036
V\u627e\u5f97\u5230
p3037
tp3038
atp3039
a(V\u56de\u62e8\u5170\u7684\u65f6\u5019\u4f1a\u5411\u53f0\u6e7e\u670b\u53cb\u548c\u53f0\u6e7e\u6f02\u4eae\u7684\u98ce\u666f\u50cf\u963f\u91cc\u5c71\u3001\u6d77\u8fb9\u3001\u53f0\u6e7e\u7684\u6c34\u679c\u548c\u6f02\u4eae\u7684\u8863\u670d\u3002
p3040
(lp3041
(L2L
V\u62e8\u5170
p3042
V\u6ce2\u5170
p3043
tp3044
atp3045
a(V\u6211\u4eec\u4e5f\u6709\u4e00\u652f\u72d7\u3002
p3046
(lp3047
(L6L
V\u4e00\u652f\u72d7
p3048
V\u4e00\u53ea\u72d7
p3049
tp3050
atp3051
a(V\u6211\u5728\u6ce2\u5170\u5b66\u4e86\u4e9a\u6d32\u6587\u5316\u8fd8\u6709\u7ba1\u54e9\u3002
p3052
(lp3053
(L14L
V\u7ba1\u54e9
p3054
V\u7ba1\u7406
p3055
tp3056
atp3057
a(V\u6211\u6709\u5c06\u5b66\u91d1\u3002
p3058
(lp3059
(L3L
V\u5c06\u5b66\u91d1
p3060
V\u5956\u5b66\u91d1
p3061
tp3062
atp3063
a(V\u4e00\u5e74\u4ee5\u540e\u6211\u8981\u56de\u5bb6\u56e0\u4e3a\u6211\u518d\u6ce2\u5170\u8981\u627e\u5de5\u4f5c\u3002
p3064
(lp3065
(L12L
V\u518d\u6ce2\u5170
p3066
V\u5728\u6ce2\u5170
p3067
tp3068
atp3069
a(V\u6211\u6bcf\u4e2a\u5468\u672b\u53bb\u4e0d\u4e00\u6837\u7684\u6210\u5e02\u3002
p3070
(lp3071
(L11L
V\u6210\u5e02
p3072
V\u57ce\u5e02
p3073
tp3074
atp3075
a(V\u661f\u671f\u7684\u65f6\u5019\u6211\u4e0b\u4e86\u53ef\u4ee5\u540e\u5728\u56fe\u4e66\u9986\u5538\u4e66\u3002
p3076
(lp3077
(L9L
V\u4e0b\u4e86\u53ef
p3078
V\u4e0b\u4e86\u8bfe
p3079
tp3080
atp3081
a(V\u6211\u56de\u8d8a\u5357\u5f97\u65f6\u5019\u627e\u5de5\u4f5c\u597d\u627e\u3002
p3082
(lp3083
(L5L
V\u56de\u8d8a\u5357\u5f97\u65f6\u5019
p3084
V\u56de\u8d8a\u5357\u7684\u65f6\u5019
p3085
tp3086
atp3087
a(V\u6211\u559c\u6b22\u505a\u4e2d\u56fd\u83dc\uff0c\u5403\u4e2d\u56fd\u83dc\uff0c\u8fd8\u6709\u559c\u6b22\u53f0\u6e7e\u5f97\u98ce\u666f\uff0c\u6bcf\u4e2a\u5730\u65b9\u90fd\u5f88\u7f8e\u3002
p3088
(lp3089
(L20L
V\u53f0\u6e7e\u5f97\u98ce\u666f
p3090
V\u53f0\u6e7e\u7684\u98ce\u666f
p3091
tp3092
atp3093
a(V\u4e0b\u4e86\u8bfe\u7684\u65f6\u5019\u6211\u5199\u529f\u8bfe\uff0c\u505a\u8fd0\u52a8\uff0c\u8fd8\u662f\u8ddf\u670b\u6709\u53bb\u73a9\u513f\u3002
p3094
(lp3095
(L20L
V\u670b\u6709
p3096
V\u670b\u53cb
p3097
tp3098
atp3099
a(V\u6211\u5df2\u7ecf\u6765\u53f0\u6e7e\u6c14\u4e2a\u6708\u4e86\u3002
p3100
(lp3101
(L7L
V\u6c14\u4e2a\u6708
p3102
V\u4e03\u4e2a\u6708
p3103
tp3104
atp3105
a(V\u6211\u8981\u5e2e\u52a9\u53f0\u6e7e\u4eba\uff0c\u591a\u4e00\u70b9\u8ba4\u662f\u5723\u7ecf\u3002
p3106
(lp3107
(L13L
V\u8ba4\u662f
p3108
V\u8ba4\u8bc6
p3109
tp3110
atp3111
a(V\u6211\u662f\u53bb\u5e74\u5341\u4e00\u6708\u4e8c\u5341\u4e09\u53f7\u6765\u4e86\uff0c\u4e00\u7ecf\u4e09\u4e2a\u6708\u591a\u4e45\u4e86\u3002
p3112
(lp3113
(L15L
V\u4e00\u7ecf
p3114
V\u5df2\u7ecf
p3115
tp3116
atp3117
a(V\u6211\u4ece\u5fb7\u56fd\u83b1\uff0c\u53ef\u662f\u6211\u7684\u5988\u5988\u662f\u53f0\u6e7e\u4eba\u3002
p3118
(lp3119
(L5L
V\u4ece\u5fb7\u56fd\u83b1
p3120
V\u4ece\u5fb7\u56fd\u6765
p3121
tp3122
atp3123
a(V\u6211\u5b66\u5f97\u4e2d\u56fd\u5b57\u5f88\u6709\u610f\u601d\u3002
p3124
(lp3125
(L2L
V\u5b66\u5f97
p3126
V\u89c9\u5f97
p3127
tp3128
atp3129
a(V\u6211\u6765\u754c\u4e0a\u4e00\u4e0b\u3002
p3130
(lp3131
(L3L
V\u754c\u4e0a
p3132
V\u4ecb\u7ecd
p3133
tp3134
a(L4L
g3132
g3133
tp3135
atp3136
a(V\u5979\u4f1a\u8bf4\u65e5\u6587\uff0c\u6240\u4ee5\u6211\u4eec\u8bf4\u4f1a\u7684\u65f6\u5019\uff0c\u6ca1\u6709\u95ee\u9898\u3002
p3137
(lp3138
(L12L
V\u8bf4\u4f1a
p3139
V\u8bf4\u8bdd
p3140
tp3141
atp3142
a(V\u6211\u5bf9\u53f0\u6e7e\u7684\u6587\u82b1\u5f88\u6709\u5174\u8da3\uff0c\u6240\u4ee5\u5e38\u5e38\u8ddf\u53f0\u6e7e\u7684\u670b\u53cb\u4e00\u8d77\u51fa\u53bb\u3002
p3143
(lp3144
(L7L
V\u6587\u82b1
p3145
V\u6587\u5316
p3146
tp3147
atp3148
a(V\u6211\u5b66\u5f97\u4e0d\u4f1a\u8bf4\u4e0d\u61c2\u4e2d\u6587\u4e0d\u597d\uff0c\u6240\u4ee5\u6211\u6765\u53f0\u6e7e\u5b66\u4e2d\u6587\u3002
p3149
(lp3150
(L2L
V\u5b66\u5f97
p3151
V\u89c9\u5f97
p3152
tp3153
atp3154
a(V\u56e0\u4e3a\u6211\u7684\u540c\u662f\u7528\u53f0\u8bed\u8ddf\u56fd\u8bed\u6df7\u5728\u4e00\u8d77\u8bf4\uff0c\u6211\u542c\u4e0d\u61c2\u3002
p3155
(lp3156
(L6L
V\u540c\u662f
p3157
V\u540c\u4e8b
p3158
tp3159
atp3160
a(V\u6211\u611f\u5192\u5f97\u8fde\u996d\u90fd\u5403\u90e8\u4e0b\uff0c\u800c\u4e14\u6211\u8d70\u4e0d\u4e86\u591a\u4e45\uff0c\u5934\u5c31\u6655\u4e86\u3002
p3161
(lp3162
(L9L
V\u5403\u90e8\u4e0b
p3163
V\u5403\u4e0d\u4e0b
p3164
tp3165
atp3166
a(V\u5982\u679c\u6211\u6709\u7a7a\u7684\u65f6\u5019\uff0c\u6211\u4eec\u5728\u4e00\u5757\u513f\u53bb\u770b\u7535\u5f71\u597d\u4e0d\u597d\uff1f
p3167
(lp3168
(L12L
V\u5728\u4e00\u5757\u513f\u53bb
p3169
V\u518d\u4e00\u5757\u513f\u53bb
p3170
tp3171
atp3172
a(V\u5c0f\u738b\u5bf9\u4e0d\u6c14\uff0c\u6211\u660e\u5929\u4e0d\u53ef\u4ee5\u8ddf\u4f60\u53bb\u770b\u7535\u5f71\u3002
p3173
(lp3174
(L5L
V\u5bf9\u4e0d\u6c14
p3175
V\u5bf9\u4e0d\u8d77
p3176
tp3177
atp3178
a(V\u5bf9\u4e0d\u8d77\uff0c\u6211\u4eec\u4e0b\u661f\u671f\u518d\u53bb\u770b\uff0c\u597d\u4e0d\u597d\uff1f\u8bf7\u4f60\u4e86\u7ed3\u6211\u53ea\u597d\u8fd9\u6837\u505a\u3002
p3179
(lp3180
(L21L
V\u4e86\u7ed3
p3181
V\u4e86\u89e3
p3182
tp3183
atp3184
a(V\u6211\u8003\u5b8c\u8bd5\uff0c\u6211\u4eec\u5728\u4e00\u8d77\u53bb\u770b\u7535\u5f71\u5427\uff01
p3185
(lp3186
(L8L
V\u5728\u4e00\u8d77\u53bb
p3187
V\u518d\u4e00\u8d77\u53bb
p3188
tp3189
atp3190
a(V\u8003\u5b8c\u8bd5\u4ee5\u540e\u6211\u5c31\u6709\u7a7a\u4e86\uff0c\u6240\u4ee5\u7b49\u8003\u5b8c\u662f\u6211\u518d\u7ed9\u4f60\u6253\u7535\u8bdd\uff0c\u597d\u5417\uff1f
p3191
(lp3192
(L17L
V\u8003\u5b8c\u662f
p3193
V\u8003\u5b8c\u8bd5
p3194
tp3195
atp3196
a(V\u90a3\u6628\u5929\u7684\u529f\u8bfe\uff0c\u8d85\uff11\uff10\u4e2a\u53e5\u5b50\u6211\u53ea\u597d\u660e\u5929\u4ea4\u7ed9\u4f60\u3002
p3197
(lp3198
(L8L
V\u8d85\uff11\uff10\u4e2a\u53e5\u5b50
p3199
V\u6284\uff11\uff10\u4e2a\u53e5\u5b50
p3200
tp3201
atp3202
a(V\u6211\u516b\u70b9\u5dee\u4e94\u5206\u5230\u73ed\u516c\u53f8\u6765\u627e\u60a8\uff0c\u53ef\u662f\u627e\u4e0d\u7740\u60a8\uff0c\u6240\u4ee5\u6211\u51b3\u5b9a\u7559\u4e00\u5f20\u5b57\u6761\u3002
p3203
(lp3204
(L8L
V\u73ed\u516c\u53f8
p3205
V\u529e\u516c\u5ba4
p3206
tp3207
a(L10L
g3205
g3206
tp3208
atp3209
a(V\u6211\u60f3\u95ee\u4f60\u660e\u5929\u6e05\u5047\uff0c\u56e0\u4e3a\u4eca\u5929\u4e0b\u8bfe\u4ee5\u540e\u6211\u53d1\u73b0\u6211\u7684\u8f66\u5b50\u88ab\u5077\u8d70\u4e86\u3002
p3210
(lp3211
(L7L
V\u6e05\u5047
p3212
V\u8bf7\u5047
p3213
tp3214
atp3215
a(V\u6211\u5230\u529e\u516c\u81f3\u627e\u60a8\uff0c\u53ef\u662f\u60a8\u4e0d\u5728\u3002
p3216
(lp3217
(L5L
V\u529e\u516c\u81f3
p3218
V\u529e\u516c\u5ba4
p3219
tp3220
atp3221
a(V\u660e\u5929\u6211\u4e0d\u80fd\u6765\u4e0a\u8bfe\uff0c\u56e0\u4e3a\u6211\u8981\u53c2\u52a0\u5956\u5b66\u91d1\u7684\u70e4\u8bd5\u3002
p3222
(lp3223
(L20L
V\u70e4\u8bd5
p3224
V\u8003\u8bd5
p3225
tp3226
atp3227
a(V\u4eca\u5929\u65e9\u4e0a\u6211\u5728\u73ed\u516c\u53f8\u627e\u59b3\uff0c\u53ef\u662f\u59b3\u8fd8\u6ca1\u6765\uff0c\u6240\u4ee5\u6211\u7559\u4e00\u5f20\u7eb8\u544a\u8bc9\u59b3\u3002
p3228
(lp3229
(L7L
V\u73ed\u516c\u53f8
p3230
V\u529e\u516c\u5ba4
p3231
tp3232
a(L9L
g3230
g3231
tp3233
atp3234
a(V\u6211\u660e\u5929\u4e0d\u96be\u53bb\u4e0a\u8bfe\u3002
p3235
(lp3236
(L5L
V\u4e0d\u96be
p3237
V\u4e0d\u80fd
p3238
tp3239
atp3240
a(V\u56e0\u4e3a\u6700\u8fd1\u6211\u4e0d\u8212\u670d\uff0c\u6211\u60f3\u53bb\u770b\u533b\u751f\uff0c\u6240\u4ee5\u6211\u660e\u5929\u4e0d\u96be\u53bb\u4e0a\u8bfe\u3002
p3241
(lp3242
(L23L
V\u4e0d\u96be
p3243
V\u4e0d\u80fd
p3244
tp3245
atp3246
a(V\u5bf9\u6211\u6765\u8bf4\u8981\u662f\u6211\u53d7\u4f24\u4e5f\u611f\u5192\u4e5f\u90fd\u6ca1\u95ee\u9898\uff0c\u6211\u603b\u662f\u4e00\u5b9a\u4e0a\u8bfe\u3002\u53ef\u662f\u5982\u679c\u6211\u7684\u8840\u7eff\u4eba\u51fa\u4e8b\u7684\u8bdd\uff0c\u6211\u4e0d\u80fd\u4e0a\u8bfe\u3002
p3247
(lp3248
(L34L
V\u8840\u7eff
p3249
V\u8840\u7f18
p3250
tp3251
atp3252
a(V\u6211\u660e\u5929\u4e0d\u96be\u4e0a\u8bfe\uff0c\u56e0\u4e3a\u660e\u5929\u6211\u5988\u5988\u8981\u6765\u53f0\u6e7e\u3002
p3253
(lp3254
(L5L
V\u4e0d\u96be
p3255
V\u4e0d\u80fd
p3256
tp3257
atp3258
a(V\u6211\u4eca\u5929\u6765\u627e\u4f60\u7684\u65f6\u5019\u4f60\u4e0d\u518d\uff0c\u6211\u60f3\u544a\u8bc9\u4f60\uff0c\u6211\u660e\u5929\u4e0d\u80fd\u6765\u4e0a\u8bfe\u3002
p3259
(lp3260
(L12L
V\u4f60\u4e0d\u518d
p3261
V\u4f60\u4e0d\u5728
p3262
tp3263
atp3264
a(V\u6211\u4e2d\u5348\u5341\u4e8c\u70b9\u4e2d\u6765\u627e\u60a8\uff0c\u56e0\u4e3a\u6211\u7968\u544a\u8bc9\u60a8\uff0c\u6211\u660e\u5929\u4e0d\u80fd\u6765\u4e0a\u8bfe\u3002
p3265
(lp3266
(L15L
V\u6211\u7968\u544a\u8bc9\u60a8
p3267
V\u6211\u8981\u544a\u8bc9\u60a8
p3268
tp3269
atp3270
a(V\u6211\u4e00\u7ecf\u5403\u4e86\u5f88\u591a\u836f\u4e86\uff0c\u53ef\u662f\u75c5\u8fd8\u4e0d\u597d\u3002
p3271
(lp3272
(L2L
V\u4e00\u7ecf
p3273
V\u5df2\u7ecf
p3274
tp3275
atp3276
a(V\u6211\u89c9\u5f97\u4e2d\u6587\u8bfe\u8ddf\u516c\u53f8\u4e00\u6837\u4e2d\u8981\uff0c\u53ef\u662f\u8fd9\u662f\u4ed6\u4eec\u5934\u4e00\u6b21\u8ddf\u6b27\u6d32\u505a\u751f\u610f\uff0c\u6240\u4ee5\u6211\u4e5f\u8981\u770b\u4e00\u770b\uff0c\u6709\u4ec0\u4e48\u5b66\u7684\u3002
p3277
(lp3278
(L12L
V\u4e2d\u8981
p3279
V\u91cd\u8981
p3280
tp3281
atp3282
a(V\u6211\u8981\u8ddf\u540c\u5b66\u8bf4\uff0c\u505a\u5de5\u8bfe\uff0c\u4f5c\u4e1a\uff0c\u7b2c\u4e8c\u5929\u628a\u5b83\u5e26\u6765\uff0c\u6240\u4ee5\u8bf7\u4f60\u653e\u5fc3\u3002
p3283
(lp3284
(L9L
V\u5de5\u8bfe
p3285
V\u529f\u8bfe
p3286
tp3287
atp3288
a(V\u6211\u660e\u5929\u4e0d\u80fd\u6765\u4e0a\u8bfe\u56e0\u4e3a\u6709\u662f\u8bf7\uff0c\u8981\u53bb\u65b0\u7af9\u3002
p3289
(lp3290
(L12L
V\u662f\u8bf7
p3291
V\u4e8b\u60c5
p3292
tp3293
a(L13L
g3291
g3292
tp3294
atp3295
a(V\u6211\u60f3\u8bf7\u5047\u4e00\u5929\uff0c\u5019\u5929\u6211\u4e00\u5b9a\u4f1a\u6765\u4e0a\u8bfe\u7684\u3002
p3296
(lp3297
(L8L
V\u5019\u5929
p3298
V\u540e\u5929
p3299
tp3300
atp3301
a(V\u5982\u679c\u4eca\u5929\u6709\u4ec0\u4e48\u529f\u8bfe\u6211\u56de\u53bb\u3002\u6211\u4f1a\u8ddf\u540c\u5b66\u60dc\u6765\u770b\u3002
p3302
(lp3303
(L19L
V\u60dc\u6765\u770b
p3304
V\u501f\u6765\u770b
p3305
tp3306
atp3307
a(V\u660e\u5929\uff0c\u6211\u4e0d\u80fd\u6765\u4e0a\u679c\uff0c\u56e0\u4e3a\u660e\u5929\uff0c\u6211\u7236\u6bcd\u6765\u53f0\u5317\u3002
p3308
(lp3309
(L9L
V\u4e0a\u679c
p3310
V\u4e0a\u8bfe
p3311
tp3312
atp3313
a(V\u6211\u5bb6\u6709\u4e94\u4e2a\u4eba\uff0c\u7238\u7238\u3001\u5417\u5417\u3001\u4e00\u4e2a\u54e5\u54e5\u3001\u4e00\u4e2a\u59b9\u59b9\u548c\u6211\u3002
p3314
(lp3315
(L11L
V\u5417\u5417
p3316
V\u5988\u5988
p3317
tp3318
a(L12L
g3316
g3317
tp3319
atp3320
a(V\u4ed6\u95ee\u4e00\u4e2a\u4eba\u300c\u8bf7\u95ee\uff0c\u5230\u53f0\u79d1\u5927\u5e08\u4ec0\u4e48\u516c\u8f66\uff1f\u300d\u3002
p3321
(lp3322
(L14L
V\u5e08\u4ec0\u4e48\u516c\u8f66
p3323
V\u662f\u4ec0\u4e48\u516c\u8f66
p3324
tp3325
atp3326
a(V\u5dee\u4e0d\u591a\u5341\u70b9\u5927\u536b\u5c97\u6765\u5927\u5b66\u3002
p3327
(lp3328
(L8L
V\u5c97\u6765
p3329
V\u521a\u6765
p3330
tp3331
atp3332
a(V\u8001\u5b9e\u8bf4\u300c\u5927\u7ef4\u5fc5\u987b\u5728\u6559\u5ba4\u524d\u9762\u7ad9\u300d\uff0c\u5927\u536b\u89c9\u5f97\u597d\u79c0\u3002
p3333
(lp3334
(L6L
V\u5927\u7ef4
p3335
V\u5927\u536b
p3336
tp3337
a(L22L
V\u597d\u79c0
p3338
V\u597d\u7f9e
p3339
tp3340
atp3341
a(V\u5728\u90a3\u8fb9\u4ed6\u4e00\u8fb9\u559d\u9152\u4e00\u8fb9\u8df3\u821e\uff0c\u4ed6\u4eec\u6311\u4e86\u4e0d\u77e5\u9053\u65f6\u95f4\uff0c\u6240\u4ee5\u591c\u91cc\u4e09\u70b9\u534a\u624d\u56de\u5bb6\u3002
p3342
(lp3343
(L16L
V\u6311\u4e86
p3344
V\u8df3\u4e86
p3345
tp3346
atp3347
a(V\u5230\u516c\u8f66\u7ad9\uff0c\u4ed6\u8981\u5ea7\uff17\uff11\uff16\u53f7\u7684\u516c\u8f66\uff0c\u5927\u660e\u7b49\u4e86\u5f88\u4e45\u53ef\u662f\u516c\u8f66\u4e5f\u8fd8\u6ca1\u6765\u3002
p3348
(lp3349
(L8L
V\u5ea7\uff17\uff11\uff16\u53f7\u7684\u516c\u8f66
p3350
V\u5750\uff17\uff11\uff16\u53f7\u7684\u516c\u8f66
p3351
tp3352
atp3353
a(V\u8001\u5e08\u8ddf\u5927\u660e\u8bf4\uff1a\u300c\u5df2\u7ecf\u51e0\u70b9\u4e86\u4f60\u624d\u6765\u5b66\u6821\uff1f\u300d\uff0c\u5927\u660e\u600e\u4e0d\u597d\u610f\u4e8b\u3002
p3354
(lp3355
(L24L
V\u600e\u4e0d\u597d\u610f\u4e8b
p3356
V\u771f\u4e0d\u597d\u610f\u601d
p3357
tp3358
a(L28L
g3356
g3357
tp3359
atp3360
a(V\u4ed6\u7ecf\u5e38\u4e3a\u4e86\u5065\u5eb7\u800c\u8d70\u8def\u53bb\u5b66\u6821\uff0c\u5230\u5b66\u6821\u8d70\u8def\u8981\u4e09\u5341\u5206\u953a\u3002
p3361
(lp3362
(L24L
V\u4e09\u5341\u5206\u953a
p3363
V\u4e09\u5341\u5206\u949f
p3364
tp3365
atp3366
a(V\u6628\u5929\u5927\u540d\u8ddf\u4ed6\u7684\u670b\u53cb\u4e00\u8d77\u53bb\u591c\u5e97\u8df3\u821e\uff0c\u53ef\u662f\u4ed6\u5fd8\u8bb0\u6628\u5929\u662f\u793c\u62dc\u56db\u3002
p3367
(lp3368
(L4L
V\u5927\u540d
p3369
V\u5927\u660e
p3370
tp3371
atp3372
a(V\u8fd9\u65f6\u5019\u4ed6\u95ee\u522b\u4eba\uff1a\u300c\u73b0\u5728\u673a\u70b9\uff1f\u300d
p3373
(lp3374
(L12L
V\u673a\u70b9
p3375
V\u51e0\u70b9
p3376
tp3377
atp3378
a(V\u5927\u660e\u4e0d\u77e5\u9053\u600e\u4e48\u529e\u56e0\u4e3a\u660e\u5929\u53c8\u4ee5\u4e2a\u5f88\u91cd\u8981\u7684\u5927\u8003\u3002
p3379
(lp3380
(L13L
V\u53c8\u4ee5\u4e2a
p3381
V\u6709\u4e00\u4e2a
p3382
tp3383
a(L14L
g3381
g3382
tp3384
atp3385
a(V\u4ed6\u539f\u6765\u6253\u7b97\u4e03\u70b9\u953a\u8d77\u5e8a\uff0c\u53ef\u662f\u5979\u89c9\u5f97\u5f88\u7d2f\u8d77\u4e0d\u6765\u3002
p3386
(lp3387
(L8L
V\u4e03\u70b9\u953a
p3388
V\u4e03\u70b9\u949f
p3389
tp3390
atp3391
a(V\u4ed6\u5230\u4e86\u516c\u8f66\u4f54\u4e5d\u770b\u5f88\u591a\u4eba\u7b49\u7740\u516c\u8f66\u3002
p3392
(lp3393
(L6L
V\u516c\u8f66\u4f54
p3394
V\u516c\u8f66\u7ad9
p3395
tp3396
a(L7L
V\u4e5d\u770b
p3397
V\u5c31\u770b
p3398
tp3399
atp3400
a(V\u5927\u660e\u4e0d\u559c\u6b22\u7b49\u4e00\u7b49\uff0c\u4ed6\u89c9\u5f97\u9093\u7684\u65f6\u5019\u8ba9\u4ed6\u5f88\u7d27\u5f20\u4e5f\u89c9\u5f97\u5f88\u9ebb\u70e6\u3002
p3401
(lp3402
(L13L
V\u9093\u7684\u65f6\u5019
p3403
V\u7b49\u7684\u65f6\u5019
p3404
tp3405
atp3406
a(V\u8d77\u70b9\u4e94\u5341\u5206\u516c\u8f66\u6765\u4e86\uff0c\u53ef\u662f\u516c\u8f66\u91cc\u5f88\u591a\u4eba\uff0c\u597d\u50cf\u8fdb\u4e0d\u53bb\u3002
p3407
(lp3408
(L1L
V\u8d77\u70b9
p3409
V\u4e03\u70b9
p3410
tp3411
atp3412
a(V\u4ed6\u4e0d\u77e5\u9053\u4ed6\u5728\u90a3\u4e00\u7ad9\u8981\u4e0b\u8f66\u3002
p3413
(lp3414
(L7L
V\u90a3\u4e00\u7ad9
p3415
V\u54ea\u4e00\u7ad9
p3416
tp3417
atp3418
a(V\u5927\u660e\u8fdb\u5f20\u5f97\u4e0d\u5f97\u4e86\u3002
p3419
(lp3420
(L3L
V\u8fdb\u5f20
p3421
V\u7d27\u5f20
p3422
tp3423
atp3424
a(V\u6253\u660e\u7684\u73ed\u5df2\u7ecf\u4e0a\u4e86\u4e8c\u5341\u5206\u949f\u7684\u8bfe\u3002
p3425
(lp3426
(L1L
V\u6253\u660e
p3427
V\u5927\u660e
p3428
tp3429
atp3430
a(V\u8001\u5e08\u5f88\u4e0d\u9ad8\u5174\u5927\u660e\u90a3\u4e48\u65e7\u624d\u6765\u4e0d\u8ba9\u4ed6\u8fdb\u6765\u3002
p3431
(lp3432
(L11L
V\u90a3\u4e48\u65e7
p3433
V\u90a3\u4e48\u4e45
p3434
tp3435
atp3436
a(V\u522b\u8fdf\u5230\uff01\u6211\u4eca\u5929\u7ed9\u4f60\u5f88\u591a\u5de5\u8bfe\u3002\u4f60\u660e\u5929\u5e94\u8be5\u7ed9\u6211\u3002\u4f60\u61c2\u5417\uff1f
p3437
(lp3438
(L12L
V\u5de5\u8bfe
p3439
V\u529f\u8bfe
p3440
tp3441
atp3442
a(V\u4ed6\u8d76\u7d27\u6362\u4e0a\u4f9d\u670d\u51b2\u5230\u516c\u8f66\u7ad9\u7b49\u516c\u8f66\uff0c\u53ef\u662f\u7b49\u90a3\u4e48\u4e45\u516c\u8f66\u90fd\u8fd8\u6ca1\u6765\u8ba9\u4ed6\u66f4\u7740\u6025\uff01
p3443
(lp3444
(L6L
V\u4f9d\u670d
p3445
V\u8863\u670d
p3446
tp3447
atp3448
a(V\u5230\u6559\u5ba4\u4e4b\u540e\u8001\u662f\u770b\u5230\u5927\u660e\u8fdf\u5230\uff0c\u5c31\u9a82\u4ed6\u4e86\u5f88\u5927\u58f0\u3002
p3449
(lp3450
(L7L
V\u8001\u662f
p3451
V\u8001\u5e08
p3452
tp3453
atp3454
a(V\u56e0\u4e3a\u4ed6\u559d\u4e86\u5f88\u591a\u9152\uff0c\u665a\u4e00\u70b9\u56de\u5bb6\uff0c\u6240\u4ee5\u4eca\u5929\u65e9\u4e0a\u7761\u8fc7\u5077\u4e86\u3002
p3455
(lp3456
(L24L
V\u7761\u8fc7\u5077
p3457
V\u7761\u8fc7\u5934
p3458
tp3459
atp3460
a(V\u4ed6\u7684\u8001\u5e08\u65e9\u51e0\u5929\u4f51\u5bf9\u4ed6\u95e8\u8bf4\uff0c\u4e0d\u8981\u5fd8\u8bb0\uff0c\u5b66\u751f\u4eec\u8981\u660e\u5929\u65e9\u6765\uff0c\u6211\u8981\u4e3a\u4f60\u4eec\u5907\u4e00\u79cd\u8003\u8bd5\u3002
p3461
(lp3462
(L8L
V\u4f51\u5bf9
p3463
V\u6709\u5bf9
p3464
tp3465
a(L11L
V\u4ed6\u95e8
p3466
V\u4ed6\u4eec
p3467
tp3468
atp3469
a(V\u4ed6\u5bf9\u4ed6\u7684\u670b\u53cb\u8bf4\uff0c\u4f60\u4e0d\u8981\u7b49\u6211\uff0c\u5982\u679c\u4f60\u7b49\u6211\u7684\u8bdd\uff0c\u4f60\u4e5f\u5c31\u5b8c\u70b9\u6765\u6559\u5ba4\u3002
p3470
(lp3471
(L26L
V\u5b8c\u70b9
p3472
V\u665a\u70b9
p3473
tp3474
atp3475
a(V\u7f8e\u4e00\u4e2a\u665a\u4e0a\u4ed6\u51fa\u53bb\u4e24\u70b9\u4ee5\u524d\u518d\u4f6a\u5bb6\u3002
p3476
(lp3477
(L1L
V\u7f8e\u4e00\u4e2a
p3478
V\u6bcf\u4e00\u4e2a
p3479
tp3480
a(L14L
V\u4f6a\u5bb6
p3481
V\u56de\u5bb6
p3482
tp3483
atp3484
a(V\u5927\u660e\u7d27\u5f20\u5f97\u4e0d\u7684\u4e86\uff0c\u56e0\u4e3a\u6015\u88ab\u8001\u5e08\u9a82\u3002
p3485
(lp3486
(L7L
V\u4e0d\u7684\u4e86
p3487
V\u4e0d\u5f97\u4e86
p3488
tp3489
atp3490
a(V\u6bcf\u4e2a\u793c\u62dc\u4e00\u65e9\u4e0a\u4e03\u70b9\u6211\u90fd\u6709\u8bfe\uff0c\u53ef\u662f\u4e0a\u4e2a\u5468\u672b\uff0c\u6211\u670b\u53cb\u4ece\u7f8e\u56fd\u6765\u6211\u5bb6\u3002
p3491
(lp3492
tp3493
a(V\u5230\u6559\u5ba4\uff0c\u6211\u8001\u5e08\u5728\u6559\u4e66\uff0c\u5979\u5bf9\u6211\u5f88\u751f\u6c14\uff0c\u6211\u60f3\u600e\u7684\u4e0d\u597d\u610f\u601d\u3002
p3494
(lp3495
(L21L
V\u600e\u7684
p3496
V\u771f\u7684
p3497
tp3498
atp3499
a(V\u4f46\u662f\u4ed6\u5f88\u5229\u5bb3\u6bcf\u6b21\u51c6\u6240\u4e0a\u8bfe\u7684\u65f6\u95f4\uff0c\u800c\u4e14\u6491\u8d77\u4e5f\u4e0d\u9519\uff0c\u6240\u4ee5\u4ed6\u5bf9\u81ea\u5df1\u6709\u4fe1\u5fc3\u3002
p3500
(lp3501
(L5L
V\u5229\u5bb3
p3502
V\u5389\u5bb3
p3503
tp3504
a(L10L
V\u51c6\u6240
p3505
V\u51c6\u65f6
p3506
tp3507
a(L19L
V\u6491\u8d77
p3508
V\u6210\u7ee9
p3509
tp3510
a(L20L
g3508
g3509
tp3511
atp3512
a(V\u8fc7\u4e86\u4e00\u4e2a\u5c0f\u65f6\u4e24\u4e2a\u5c0f\u65f6\u4ed6\u7684\u670b\u53cb\u90fd\u56de\u5bb6\u4e86\uff0c\u4f46\u662f\u963f\u4f1f\u8fd8\u5728\u54ea\u91cc\u73a9\u4e00\u73a9\u3002
p3513
(lp3514
(L26L
V\u54ea\u91cc
p3515
V\u90a3\u91cc
p3516
tp3517
atp3518
a(V\u963f\u4f1f\u5728\u5e8a\u4e0a\u597d\u597d\u5f97\u7761\uff0c\u7a81\u7136\u611f\u89c9\u5230\u592a\u9633\u5f88\u5927\uff01\u4ed6\u6551\u8d77\u6765\u770b\u65f6\u949f\uff0c\u600e\u4e48\u529e\u65f6\u95f4\u5df2\u7ecf\u516b\u70b9\u4e8c\u5341\u5206\u4e86\uff01
p3519
(lp3520
(L22L
V\u6551\u8d77\u6765
p3521
V\u5c31\u8d77\u6765
p3522
tp3523
atp3524
a(V\u300c\u54c7\uff0c\u597d\u9669\u300d\u4ed6\u4e4e\u5f88\u5927\u7684\u5438\uff0c\u5c31\u8fdb\u53bb\u6559\u5ba4\u8ddf\u8001\u5e08\u8bf4\u3002\u300c\u8001\u5e08\uff0c\u5bf9\u4e0d\u8d77\uff01\u6211\u8d76\u5feb\u51c6\u5907\u8003\u8bd5\u3002\u300d
p3525
(lp3526
(L8L
V\u4e4e\u5f88\u5927\u7684\u5438
p3527
V\u547c\u5f88\u5927\u7684\u5438
p3528
tp3529
atp3530
a(V\u600e\u4e48\u529e\uff1f\u5176\u5b9e\u963f\u4f1f\u4e00\u6574\u5929\u6c34\u4e50\u90e8\u66f2\u5b66\u6821\u4e86\uff01
p3531
(lp3532
(L12L
V\u4e00\u6574\u5929\u6c34\u4e50
p3533
V\u4e00\u6574\u5929\u7761\u4e86
p3534
tp3535
a(L13L
g3533
g3534
tp3536
a(L14L
V\u90e8\u66f2\u5b66\u6821
p3537
V\u4e0d\u53bb\u5b66\u6821
p3538
tp3539
a(L15L
g3537
g3538
tp3540
atp3541
a(V\u5e94\u4e3a\u5f88\u4e50\u4ed6\u5fd8\u8bb0\u8bbe\u5b9a\u95f9\u949f\uff0c\u65e9\u4e0a\uff17\uff1a\uff13\uff10\u624d\u8d77\u6765\u3002
p3542
(lp3543
(L1L
V\u5e94\u4e3a
p3544
V\u56e0\u4e3a
p3545
tp3546
a(L4L
V\u5f88\u4e50
p3547
V\u5f88\u7d2f
p3548
tp3549
atp3550
a(V\u5929\u534e\u8d70\u8def\u5f88\u5feb\uff0c\u6015\u516c\u8f66\u6765\u4e86\uff0c\u4e0d\u7136\u4ed6\u8fd8\u8981\u7b49\uff12\uff10\u5206\u949f\u7b49\u4e0b\u4e00\u534a\u7684\u516c\u8f66\u3002
p3551
(lp3552
(L27L
V\u4e0b\u4e00\u534a
p3553
V\u4e0b\u4e00\u73ed
p3554
tp3555
atp3556
a(V\u4ed6\u5fc3\u91cc\u771f\u4e0d\u5b89\uff0c\u5e94\u4e3a\u8fd9\u4e00\u6b21\u7684\u8003\u8bd5\u5f88\u91cd\u8981\u3002
p3557
(lp3558
(L8L
V\u5e94\u4e3a
p3559
V\u56e0\u4e3a
p3560
tp3561
atp3562
a(V\u540e\u6765\u7b49\u4ee5\u7b49\u516c\u8f66\u4e5f\u6765\u4e86\u3002
p3563
(lp3564
(L4L
V\u7b49\u4ee5\u7b49
p3565
V\u7b49\u4e00\u7b49
p3566
tp3567
atp3568
a(V\u8001\u5e08\u8ddf\u4ed6\u8bf4\uff0c\u53ea\u6709\u59b3\u4e00\u4e2a\u4eba\u6ca1\u6709\u6765\u8003\u8bd5\uff0c\u4f60\u5c31\u7b49\u4e0b\u4e2a\u5b66\u671f\u5427\uff01
p3569
(lp3570
(L9L
V\u53ea\u6709\u59b3
p3571
V\u53ea\u6709\u4f60
p3572
tp3573
atp3574
a(V\u8001\u5e08\u529d\u4ed6\u548c\u5404\u4f4d\u540c\u5b66\u4eec\uff0c\u665a\u4e0a\u4e0d\u53ef\u4ee5\u5f88\u665a\u56de\u5bb6\uff0c\u66f4\u53ef\u51b5\u8981\u8003\u8bd5\u7684\u65f6\u5019\uff0c\u8981\u8ba4\u771f\u5538\u4e66\u3002
p3575
(lp3576
(L23L
V\u53ef\u51b5
p3577
V\u4f55\u51b5
p3578
tp3579
atp3580
a(V\u4ed6\u559d\u5f88\u591a\u9152\uff0c\u56de\u5bb6\u7684\u65f6\u5019\u5f88\u7d2f\uff0c\u5934\u5f88\u901a\u6240\u4ee5\u4ed6\u8d77\u5e8a\u4e0d\u4e86\u3002
p3581
(lp3582
(L17L
V\u5934\u5f88\u901a
p3583
V\u5934\u5f88\u75db
p3584
tp3585
atp3586
a(V\u4ed6\u8bf4\u4ed6\u7b49\u516c\u8f66\u7b49\u4e86\u4e00\u534a\u5c0f\u65f6\uff0c\u6240\u4ee5\u4ed6\u6765\u5b66\u59e3\u5f88\u665a\u3002
p3587
(lp3588
(L19L
V\u5b66\u59e3
p3589
V\u5b66\u6821
p3590
tp3591
atp3592
a(V\u5982\u679c\u4f60\u8ddf\u670b\u53cb\u8981\u53bb\u665a\uff0c\u4f60\u8981\u65e9\u4e00\u70b9\u56de\u5bb6\u3002
p3593
(lp3594
(L9L
V\u8981\u53bb\u665a
p3595
V\u8981\u53bb\u73a9
p3596
tp3597
atp3598
a(V\u6211\u8d76\u5feb\u8d77\u5e8a\u4e0d\u6d17\u6fa1\uff0c\u53bb\u516c\u8f66\u7ad9\uff0c\u4f46\u662f\u6709\u5f88\u591a\u4eba\u800c\u4e14\u8d5b\u8f66\u3002
p3599
(lp3600
(L23L
V\u8d5b\u8f66
p3601
V\u585e\u8f66
p3602
tp3603
atp3604
a(V\u6211\u6765\u5927\u5f00\u95e8\u4e71\u8bb2\uff0c\u8001\u5e08\u66f4\u751f\u6c14\u4e86\uff0c\u56e0\u4e3a\u4eca\u5929\u662f\u8003\u8bd5\u3002
p3605
(lp3606
(L3L
V\u5927\u5f00\u95e8
p3607
V\u6253\u5f00\u95e8
p3608
tp3609
atp3610
a(V\u6211\u542c\u4e86\u5c31\u653e\u5fc3\u4e86\uff0c\u6240\u4ee5\u6211\u8ddf\u4ed6\u4eec\u5168\u665a\u4e00\u8d77\u8df3\u65e0\u3002
p3611
(lp3612
(L20L
V\u8df3\u65e0
p3613
V\u8df3\u821e
p3614
tp3615
atp3616
a(V\u6211\u4eec\u8df3\u65e0\u5b8c\u7684\u4ee5\u540e\uff0c\u5c31\u56de\u5bb6\u4e86\u3002
p3617
(lp3618
(L4L
V\u8df3\u65e0
p3619
V\u8df3\u821e
p3620
tp3621
atp3622
a(V\u600e\u4e48\u529e\uff01\u6211\u7684\u623f\u5b50\u91cc\u5927\u5b66\u5f88\u8fdc\uff01\u65f6\u95f4\u4e0d\u591f\u4e86\uff01
p3623
(lp3624
(L9L
V\u91cc\u5927\u5b66\u5f88\u8fdc
p3625
V\u79bb\u5927\u5b66\u5f88\u8fdc
p3626
tp3627
atp3628
a(V\u4ed6\u521a\u5feb\u53bb\u516c\u8f66\u505c\u8f66\u7ad9\u7b49\u4e0b\u6b21\u7684\u516c\u8f66\u3002
p3629
(lp3630
(L2L
V\u521a\u5feb
p3631
V\u8d76\u5feb
p3632
tp3633
atp3634
a(V\u4e0a\u8bfe\u65f6\u95f4\u5341\u4e03\u70b9\u56db\u5341\u5206\uff0c\u516b\u70b9\u6211\u624d\u4e0a\u8f66\u53bb\u6211\u8fdf\u5230\u4e86\uff0c\u600e\u4e48\u529e\uff1f
p3635
(lp3636
(L5L
V\u5341\u4e03\u70b9\u56db\u5341\u5206
p3637
V\u662f\u4e03\u70b9\u56db\u5341\u5206
p3638
tp3639
atp3640
a(V\u6211\u6068\u60c5\u5f20\u5230\u5b66\u6821\u4ee5\u540e\u6211\u5feb\u8dd1\u4e0a\u8bfe\uff0c\u5230\u6559\u5ba4\u6211\u770b\u5230\u8001\u5e08\u548c\u540c\u5b66\u5728\u4e0a\u8bfe\u3002
p3641
(lp3642
(L2L
V\u6068\u60c5\u5f20
p3643
V\u5f88\u7d27\u5f20
p3644
tp3645
a(L3L
g3643
g3644
tp3646
atp3647
a(V\u5979\u6068\u7968\u4eae\uff0c\u5230\u665a\u4e0a\u6211\u8bf7\u4ed6\u5148\u5403\u996d\uff0c\u5728\u53bb\u73a9\u3002
p3648
(lp3649
(L2L
V\u6068\u7968\u4eae
p3650
V\u5f88\u6f02\u4eae
p3651
tp3652
a(L3L
g3650
g3651
tp3653
a(L16L
V\u5728\u53bb\u73a9
p3654
V\u518d\u53bb\u73a9
p3655
tp3656
atp3657
a(V\u6628\u5929\u591c\u91cc\uff0c\u6211\u8ddf\u4fe9\u4e2a\u670b\u53cb\u53bb\u73a9\uff01
p3658
(lp3659
(L8L
V\u4fe9\u4e2a
p3660
V\u4e24\u4e2a
p3661
tp3662
atp3663
a(V\u6211\u4e5f\u77e5\u9053\u8001\u5e08\u5f88\u751f\u6c14\uff0c\u56e0\u4e3a\u6211\u5e38\u5e38\u8d64\u9053\u3002
p3664
(lp3665
(L16L
V\u8d64\u9053
p3666
V\u8fdf\u5230
p3667
tp3668
a(L17L
g3666
g3667
tp3669
atp3670
a(V\u5feb\u5feb\u4ece\u5bb6\u8dd1\u6b65\u5230\u516c\u8f66\u7ad9\u7b49\u516c\u8f66\uff0c\u56e0\u4e3a\u4ed6\u60be\u6015\u8fdf\u5230\u4e86\u8001\u5e08\u4f1a\u751f\u6c14\u3002
p3671
(lp3672
(L18L
V\u60be\u6015
p3673
V\u6050\u6015
p3674
tp3675
atp3676
a(V\u4ed6\u5317\u8001\u5e08\u9a82\u4ed6\uff0c\u6240\u4ee5\u9a6c\u4e0a\u53bb\u6253\u5de5\u8f66\u4e0a\u73ed\u3002
p3677
(lp3678
(L2L
V\u5317\u8001\u5e08\u9a82\u4ed6
p3679
V\u6015\u8001\u5e08\u9a82\u4ed6
p3680
tp3681
a(L13L
V\u6253\u5de5\u8f66
p3682
V\u642d\u516c\u8f66
p3683
tp3684
a(L14L
g3682
g3683
tp3685
atp3686
a(V\u4ed6\u8981\u7b49\u5341\u4e94\u5206\u79cd\uff0c\u4f46\u662f\u8f66\u90fd\u8fd8\u6ca1\u5230\uff0c\u6240\u4ee5\u4ed6\u5f00\u8dd1\u3002
p3687
(lp3688
(L7L
V\u5341\u4e94\u5206\u79cd
p3689
V\u5341\u4e94\u5206\u949f
p3690
tp3691
atp3692
a(V\u4ed6\u5230\u5b66\u6821\u7684\u65f6\u540e\uff0c\u4e2d\u6587\u8bfe\u5df2\u7ecf\u5f00\u59cb\u3002
p3693
(lp3694
(L7L
V\u65f6\u540e
p3695
V\u65f6\u5019
p3696
tp3697
atp3698
a(V\u5bf9\u4e0d\u8d77\u8001\u5e08\uff0c\u4eca\u5929\u65e9\u4e0a\u6211\u7684\u5a46\u5a46\u795e\u75c5\uff0c\u6240\u4ee5\u6211\u8981\u5e26\u4ed6\u53bb\u770b\u533b\u751f\u3002
p3699
(lp3700
(L15L
V\u795e\u75c5
p3701
V\u751f\u75c5
p3702
tp3703
atp3704
a(V\u4ed6\u7b49\u4e86\u4e8c\u5341\u5206\u949f\uff0c\u516c\u8f66\u624d\u6765\uff0c\u800c\u4e14\u4eca\u5929\u7684\u8def\u4e0a\u7684\u8f66\u5b50\u5fc5\u8f83\u591a\uff0c\u516c\u8f66\u78b0\u5230\u585e\u8f66\u4e86\u3002
p3705
(lp3706
(L24L
V\u5fc5\u8f83\u591a
p3707
V\u6bd4\u8f83\u591a
p3708
tp3709
atp3710
a(V\u4ed6\u5ea7\u516c\u8f66\u4e09\u5341\u5206\u949f\u624d\u5230\u5b66\u6821\u4e86\u3002
p3711
(lp3712
(L2L
V\u5ea7\u516c\u8f66
p3713
V\u5750\u516c\u8f66
p3714
tp3715
atp3716
a(V\u522b\u518d\u559d\u9152\u592a\u591a\u3002\u522b\u518d\u7761\u8fc7\u5934\u628a\uff01
p3717
(lp3718
(L13L
V\u7761\u8fc7\u5934\u628a
p3719
V\u7761\u8fc7\u5934\u5427
p3720
tp3721
atp3722
a(V\u6211\u8981\u5ea7\u5f97\u5df4\u58eb\u662f\uff17\uff11\uff16\u3002
p3723
(lp3724
(L3L
V\u6211\u8981\u5ea7\u5f97\u5df4\u58eb
p3725
V\u6211\u8981\u5750\u7684\u5df4\u58eb
p3726
tp3727
a(L4L
g3725
g3726
tp3728
atp3729
a(V\u53ef\u662f\u8fd9\u4e2a\u5df4\u58eb\u6765\u5f97\u65f6\u5f88\u6162\uff0c\u7ed3\u679c\u6211\u6765\u4e0d\u8d77\u4e0a\u8bfe\u3002
p3730
(lp3731
(L18L
V\u6765\u4e0d\u8d77
p3732
V\u6765\u4e0d\u53ca
p3733
tp3734
atp3735
a(V\u963f\uff0c\u5b8c\u86cb\u4e86\uff01\u5feb\u516b\u70b9\u4e86\u3002
p3736
(lp3737
(L1L
V\u963f
p3738
V\u554a
p3739
tp3740
atp3741
a(V\u95f9\u949f\u54cd\u4e86\u597d\u51e0\u6b21\u4e5f\u65e0\u6cd5\u53eb\u9192\u4ed6\uff0c\u7ed3\u679c\u4ed6\u4e03\u70b9\u4e8c\u5341\u4e94\u5206\u624d\u966a\u5435\u9192\u6765\u3002
p3742
(lp3743
(L25L
V\u624d\u966a\u5435\u9192
p3744
V\u624d\u88ab\u5435\u9192
p3745
tp3746
atp3747
a(V\u4ed6\u8fd8\u9700\u8981\u6498\u516c\u8f66\u53bb\u5b66\u6821\uff0c\u4ee5\u5230\u8f66\u7ad9\u7684\u65f6\u5019\uff0c\u4ed6\u53d1\u73b0\u5f88\u591a\u4eba\u5728\u516c\u8f66\u4e0a\u6392\u961f\u3002
p3748
(lp3749
(L5L
V\u6498\u516c\u8f66
p3750
V\u642d\u516c\u8f66
p3751
tp3752
a(L12L
V\u4ee5\u5230\u8f66\u7ad9
p3753
V\u4e00\u5230\u8f66\u7ad9
p3754
tp3755
a(L29L
V\u516c\u8f66\u4e0a
p3756
V\u516c\u8f66\u7ad9
p3757
tp3758
atp3759
a(V\u4ed6\u540e\u6765\u9009\u62e9\u4e86\u5ea7\u8ba1\u7a0b\u8f66\u53bb\u5b66\u6821\u3002
p3760
(lp3761
(L7L
V\u5ea7\u8ba1\u7a0b\u8f66
p3762
V\u5750\u8ba1\u7a0b\u8f66
p3763
tp3764
atp3765
a(V\u4e00\u4e2a\u4eba\u662f\u5927\u540d\u8ddf\u4ed6\u7684\u5974\u751f\u7684\u670b\u53cb\uff0c\u5979\u4eec\u5f88\u7968\u4eae\u3002
p3766
(lp3767
(L6L
V\u5927\u540d
p3768
V\u5927\u660e
p3769
tp3770
a(L10L
V\u5974\u751f
p3771
V\u5973\u751f
p3772
tp3773
a(L19L
V\u7968\u4eae
p3774
V\u6f02\u4eae
p3775
tp3776
atp3777
a(V\u4ed6\u7684\u773c\u9753\u7684\u8272\u7ea2\u8272\uff0c\u56e0\u4e3a\u4ed6\u73b0\u5728\u5f88\u7d2f\uff0c\u4ed6\u8981\u7761\u89c9\u3002
p3778
(lp3779
(L4L
V\u773c\u9753
p3780
V\u773c\u775b
p3781
tp3782
atp3783
a(V\u4ed6\u5feb\u8fdb\u5ea7\u4e0b\uff0c\u4e0b\u8bfe\u4ee5\u540e\u8ddf\u8001\u5e08\u8bf4\u300c\u4e0d\u597d\u610f\u601d\uff01\u6628\u665a\u5f88\u665a\u624d\u7761\u89c9\u3002\u300d
p3784
(lp3785
(L4L
V\u5ea7\u4e0b
p3786
V\u5750\u4e0b
p3787
tp3788
atp3789
a(V\u6700\u8fd1\uff0c\u6211\u89c9\u5f97\u5f88\u7d2f\uff0c\u751f\u6d3b\u53f0\u6211\u65e0\u804a\u3002
p3790
(lp3791
(L12L
V\u53f0\u6211\u65e0\u804a
p3792
V\u592a\u8fc7\u65e0\u804a
p3793
tp3794
a(L13L
g3792
g3793
tp3795
atp3796
a(V\u5728\u591c\u5e97\u5f88\u70ed\u95f9\uff0c\u6709\u5f88\u591a\u8fa3\u59b9\u5728\u8df3\u821e\uff0c\u8fd8\u53ef\u4ee5\u559d\u9152\u548c\u5564\u9152\uff0c\u8df3\u65e0\uff0c\u8ddf\u5566\u59b9\u804a\u4e00\u804a\u3002
p3797
(lp3798
(L27L
V\u8df3\u65e0
p3799
V\u8df3\u821e
p3800
tp3801
a(L30L
V\u5566\u59b9
p3802
V\u8fa3\u59b9
p3803
tp3804
atp3805
a(V\u5728\u516c\u8f66\u7ad9\u5f88\u591a\u4eba\u5728\u7b49\u516c\u8f66\uff0c\u56e0\u4e3a\u662f\u4e0a\u73ed\u7684\u4e8b\u4ef6\u3002
p3806
(lp3807
(L19L
V\u4e8b\u4ef6
p3808
V\u65f6\u95f4
p3809
tp3810
a(L20L
g3808
g3809
tp3811
atp3812
a(V\u6211\u5077\u5077\u8f7b\u53bb\uff0c\u8001\u5e08\u770b\u5230\u6211\uff0c\u5979\u5c31\u751f\u6c14\u4e86\u3002
p3813
(lp3814
(L4L
V\u8f7b\u53bb
p3815
V\u8fdb\u53bb
p3816
tp3817
atp3818
a(V\u6216\u6765\u6211\u4e0d\u6562\u5f88\u665a\u56de\u5bb6\uff0c\u8981\u7528\u529f\u4e00\u70b9\u3002
p3819
(lp3820
(L1L
V\u6216\u6765
p3821
V\u540e\u6765
p3822
tp3823
atp3824
a(V\u4ed6\u53eb\u9192\u7684\u65f6\u5019\uff0c\u5df2\u7ecf\uff18\u70b9\uff12\uff10\u5206\u5de6\u53f3\u3002
p3825
(lp3826
(L2L
V\u53eb\u9192
p3827
V\u89c9\u9192
p3828
tp3829
atp3830
a(V\u6709\u4e00\u5929\uff18\u70b9\u665a\u4e0a\u674e\u5927\u660e\u54cf\u4ed6\u670b\u53cb\u53bb\u8df3\u821e\u7684\u5730\u65b9\u3002
p3831
(lp3832
(L11L
V\u5927\u660e\u54cf\u4ed6\u670b\u53cb
p3833
V\u5927\u660e\u8ddf\u4ed6\u670b\u53cb
p3834
tp3835
atp3836
a(V\u90a3\u4e2a\u5730\u65b9\u6709\u5f88\u591a\u4eba\uff0c\u4ed6\u4eec\u89c9\u5f97\u975e\u5e38\u70ed\u95f9\uff0c\u6240\u4ee5\u674e\u5927\u660e\u8ddf\u4ed6\u4eec\u559c\u6b22\u54ea\u4e2a\u5730\u65b9\u3002
p3837
(lp3838
(L29L
V\u54ea\u4e2a\u5730\u65b9
p3839
V\u90a3\u4e2a\u5730\u65b9
p3840
tp3841
atp3842
a(V\u674e\u5927\u660e\u559d\u5f88\u591a\u9152\u4e5f\u8df3\u4e94\u8ddf\u4ed6\u7684\u670b\u53cb\u4eec\u3002
p3843
(lp3844
(L10L
V\u8df3\u4e94
p3845
V\u8df3\u821e
p3846
tp3847
atp3848
a(V\u6240\u4ee5\u4ed6\u5f88\u5feb\u6d17\u6fa1\u7136\u540e\u8d70\u8def\u5230\u516c\u8f66\u4f54\u3002
p3849
(lp3850
(L15L
V\u516c\u8f66\u4f54
p3851
V\u516c\u8f66\u7ad9
p3852
tp3853
atp3854
a(V\u674e\u5927\u540d\u5750\u516c\u8f66\u7684\u65f6\u5019\uff0c\u53c8\u4e00\u8fb9\u7761\u89c9\u6709\u53c8\u4e00\u8fb9\u5f88\u5feb\u7684\u770b\u4e66\uff0c\u56e0\u4e3a\u665a\u4e0a\u6ca1\u6709\u770b\u4e66\u3002
p3855
(lp3856
(L3L
V\u674e\u5927\u540d
p3857
V\u674e\u5927\u660e
p3858
tp3859
atp3860
a(V\u5dee\u4e0d\u591a\uff13\uff10\u4efd\u949f\u4ed6\u4eec\u5230\u4e86\u3002
p3861
(lp3862
(L6L
V\uff13\uff10\u4efd\u949f
p3863
V\uff13\uff10\u5206\u949f
p3864
tp3865
atp3866
a(V\u4ed6\u7684\u8001\u5e08\uff1a\u300c\u4f60\u600e\u569c\u4e86\uff1f\u300d\uff0c\u674e\u5927\u660e\u8bf4\uff1a\u300c\u6211\u5934\u75db\u3002\u300d\u3002
p3867
(lp3868
(L9L
V\u600e\u569c
p3869
V\u600e\u4e48
p3870
tp3871
atp3872
a(V\u8001\u5e08\u8bf4\uff1a\u300c\u597d\u597d\u7f8e\u5173\u7cfb\uff0c\u660e\u5929\u4f60\u5f97\u6765\uff18\u70b9\u597d\u4e0d\u3002\u300d\u3002
p3873
(lp3874
(L8L
V\u7f8e\u5173\u7cfb
p3875
V\u6ca1\u5173\u7cfb
p3876
tp3877
atp3878
a(V\u4ed6\u5ea7\u5462\u4e2a\u516c\u8f66\u5230\u5b66\u6821\uff0c\u53ef\u662f\u4e0a\u8bfe\u65f6\u95f4\u4e5f\u5df2\u7ecf\u5341\u5206\u8fc7\u4e86\u3002
p3879
(lp3880
(L2L
V\u5ea7\u5462\u4e2a\u516c\u8f66
p3881
V\u5750\u90a3\u4e2a\u516c\u8f66
p3882
tp3883
a(L3L
g3881
g3882
tp3884
atp3885
a(V\u6211\u5e72\u5feb\u6d17\u6fa1\uff0c\u6d17\u4e86\u4e00\u4e2a\u6fa1\uff0c\u628a\u6211\u7684\u5305\u5305\u4e0a\u8eab\uff0c\u6211\u8dd1\u8def\u53bb\u7b49\u516c\u8f66\u3002
p3886
(lp3887
(L2L
V\u5e72\u5feb
p3888
V\u8d76\u5feb
p3889
tp3890
atp3891
a(V\u5728\u8def\u4e0a\u6709\u5f88\u591a\u4eba\uff0c\u975e\u5e38\u70ed\u607c\u3002
p3892
(lp3893
(L12L
V\u70ed\u607c
p3894
V\u70ed\u95f9
p3895
tp3896
atp3897
a(V\u6211\u770b\u6211\u7684\u624b\u647d\uff0c\u65f6\u95f4\u5df2\u7ecf\u4e5d\u70b9\u534a\u4e86\uff0c\u6211\u8e81\u8bf0\u4e86\u3002
p3898
(lp3899
(L6L
V\u624b\u647d
p3900
V\u624b\u8868
p3901
tp3902
a(L18L
V\u8e81\u8bf0
p3903
V\u7cdf\u7cd5
p3904
tp3905
a(L19L
g3903
g3904
tp3906
atp3907
a(V\u4ed6\u770b\u6211\u6765\uff0c\u5c31\u95ee\u6211\u4e3a\u4ec0\u4e48\u53ea\u5230\u3002
p3908
(lp3909
(L12L
V\u53ea\u5230
p3910
V\u8fdf\u5230
p3911
tp3912
atp3913
a(V\u867d\u7136\u5929\u6c14\u4e0b\u96e8\uff0c\u4f46\u662f\u6211\u6765\u4e86\uff0c\u6211\u5373\u5c31\u8e0f\u7740\u53bb\u3002
p3914
(lp3915
(L15L
V\u5373\u5c31\u8e0f\u7740
p3916
V\u9a91\u811a\u8e0f\u8f66
p3917
tp3918
a(L16L
g3916
g3917
tp3919
a(L18L
g3916
g3917
tp3920
atp3921
a(V\u82cf\u5609\u7684\u65f6\u5019\u6211\u60f3\u56de\u5370\u5c3c\uff0c\u4f46\u662f\u6211\u6ca1\u6709\u65f6\u95f4\u3002
p3922
(lp3923
(L1L
V\u82cf\u5609
p3924
V\u6691\u5047
p3925
tp3926
a(L2L
g3924
g3925
tp3927
atp3928
a(V\u6211\u5fc5\u987b\u5728\u5b9e\u9a8c\u5ba4\u505a\u5b9e\u9a8c\uff0c\u5e94\u4e3a\u660e\u5e74\u6211\u8981\u6bd5\u4e1a\u4e86\u3002
p3929
(lp3930
(L12L
V\u5e94\u4e3a
p3931
V\u56e0\u4e3a
p3932
tp3933
atp3934
a(V\u6211\u7684\u8001\u5b9e\u8bf4\u300c\u4f60\u6bd4\u5e0c\u7528\u529f\u300d\u3002
p3935
(lp3936
(L4L
V\u8001\u5b9e
p3937
V\u8001\u5e08
p3938
tp3939
a(L8L
V\u6bd4\u5e0c
p3940
V\u5fc5\u987b
p3941
tp3942
a(L9L
g3940
g3941
tp3943
atp3944
a(V\u82cf\u5609\u5728\u53f0\u6e7e\u4e5f\u6ca1\u5173\u7cfb\uff0c\u5982\u679c\u6211\u505a\u5b9e\u9a8c\u505a\u5f97\u5f88\u7269\u6599\uff0c\u6211\u53ef\u4ee5\u53bb\u770b\u770b\u5f88\u6f02\u4eae\u7684\u5730\u65b9\uff0c\u9a87\u53bb\u591c\u5e02\u4e70\u4e1c\u897f\u3002
p3945
(lp3946
(L1L
V\u82cf\u5609
p3947
V\u6691\u5047
p3948
tp3949
a(L2L
g3947
g3948
tp3950
a(L20L
V\u7269\u6599
p3951
V\u65e0\u804a
p3952
tp3953
a(L21L
g3951
g3952
tp3954
a(L36L
V\u9a87\u53bb
p3955
V\u8fd8\u53bb
p3956
tp3957
atp3958
a(V\u7eb8\u5462\u8eab\u4f53\u5065\u5eb7\u3002
p3959
(lp3960
(L1L
V\u7eb8\u5462
p3961
V\u795d\u4f60
p3962
tp3963
a(L2L
g3961
g3962
tp3964
atp3965
a(V\u4f5c\u5929\u6211\u770b\u5230\u4f60\u592a\u592a\uff0c\u5979\u544a\u8bc9\u4f60\u6709\u611f\u5192\u3002
p3966
(lp3967
(L1L
V\u4f5c\u5929
p3968
V\u6628\u5929
p3969
tp3970
atp3971
a(V\u6211\u89c9\u5f97\u4f60\u5e94\u8be5\u4e5f\u5403\u836f\u4e5f\u4f11\u606f\u673a\u5929\u5c31\u597d\u4e86\u3002
p3972
(lp3973
(L13L
V\u673a\u5929
p3974
V\u51e0\u5929
p3975
tp3976
atp3977
a(V\u56e0\u4e3a\u5176\u662f\u660e\u5929\u6211\u6709\u8003\u8bd5\uff0c\u6240\u4ee5\u4eca\u5929\u4e0d\u53ef\u4ee5\u53bb\u770b\u4f60\u3002
p3978
(lp3979
(L4L
V\u5176\u662f
p3980
V\u5176\u5b9e
p3981
tp3982
atp3983
a(V\u6211\u5e0c\u671b\u4f60\u5f88\u5feb\u5feb\u590d\u3002
p3984
(lp3985
(L7L
V\u5feb\u590d
p3986
V\u6062\u590d
p3987
tp3988
atp3989
a(V\u6211\u5e0c\u671b\u4f60\u5f88\u5feb\u56de\u590d\u4f60\u7684\u5065\u5eb7\uff01\u90a3\u4e48\u4f60\u597d\u597d\u5f97\u4f11\u606f\u3002
p3990
(lp3991
(L7L
V\u56de\u590d
p3992
V\u6062\u590d
p3993
tp3994
atp3995
a(V\u53ef\u662f\u4ed6\u8fd8\u662f\u8bf4\u6211\u4e0d\u80fd\u53bb\u770b\u4f60\uff0c\u5e94\u4e3a\u4f60\u5e94\u8be5\u591a\u4f11\u606f\u3002
p3996
(lp3997
(L14L
V\u5e94\u4e3a
p3998
V\u56e0\u4e3a
p3999
tp4000
atp4001
a(V\u5e0c\u671b\u4f60\u8eab\u4f53\u5feb\u597d\u8d77\u6765\uff0c\u56de\u590d\u4ee5\u524d\u7684\u5927\u660e\u5f88\u6d3b\u529b\u3002
p4002
(lp4003
(L11L
V\u56de\u590d
p4004
V\u6062\u590d
p4005
tp4006
atp4007
a(V\u4e0d\u597d\u4ebf\u601d\uff01\u6211\u5efa\u5728\u4e0d\u80fd\u53bb\u770b\u4f60\uff0c\u56e0\u4e3a\u6211\u5efa\u5728\u5728\u7f8e\u56fd\u8ddf\u6211\u7238\u5988\u770b\u6211\u59ca\u59ca\u3002
p4008
(lp4009
(L3L
V\u4e0d\u597d\u4ebf\u601d
p4010
V\u4e0d\u597d\u610f\u601d
p4011
tp4012
a(L7L
V\u5efa\u5728
p4013
V\u73b0\u5728
p4014
tp4015
a(L18L
g4013
g4014
tp4016
atp4017
a(V\u73b0\u5728\u4f60\u7684\u8eab\u4f53\u60c5\u5f62\u600e\u4e48\u6768\uff1f\u6211\u5e0c\u671b\u4f60\u7684\u8eab\u4f53\u53d8\u5feb\u597d\u3002
p4018
(lp4019
(L11L
V\u600e\u4e48\u6768
p4020
V\u600e\u4e48\u6837
p4021
tp4022
atp4023
a(V\u6700\u8fd1\u5929\u6c14\u5e38\u5e38\u6709\u4e0b\u5662\uff0c\u6709\u5f88\u591a\u4eba\u751f\u75c5\u3002
p4024
(lp4025
(L9L
V\u4e0b\u5662
p4026
V\u4e0b\u96e8
p4027
tp4028
atp4029
a(V\u4f60\u5e94\u8be5\u591a\u559d\u6c34\uff0c\u70ed\u6c34\u5c31\u5c5e\u6700\u597d\u7684\uff0c\u4e5f\u591a\u5403\u6c34\u679c\u3002
p4030
(lp4031
(L11L
V\u5c31\u5c5e
p4032
V\u5c31\u662f
p4033
tp4034
atp4035
a(V\u6539\u5929\u6211\u6765\u770b\u4f60\uff0c\u597d\u4e0d\u597d\uff1f\u522b\u5fd8\u6cb3\u6c34\u8ddf\u5403\u836f\u3002
p4036
(lp4037
(L14L
V\u6cb3\u6c34
p4038
V\u559d\u6c34
p4039
tp4040
atp4041
a(V\u542c\u8bf4\u8fd9\u4e00\u6b21\u4f60\u7684\u611f\u5192\u5f88\u4e25\u91cd\uff0c\u533a\u6025\u8bca\u90e8\u3002
p4042
(lp4043
(L14L
V\u533a\u6025\u8bca\u90e8
p4044
V\u53bb\u6025\u8bca\u90e8
p4045
tp4046
atp4047
a(V\u59b3\u600e\u4e48\u4e86\uff1f\u4e3a\u4ec0\u4e48\u8fd9\u6837\u5f88\u4e25\u91cd\uff1f
p4048
(lp4049
(L1L
V\u59b3\u600e\u4e48\u4e86
p4050
V\u4f60\u600e\u4e48\u4e86
p4051
tp4052
atp4053
a(V\u6b38\uff0c\u4e16\u754c\u4e0a\u4e00\u534a\u662f\u5973\u5b69\u5b50\u4e5f\uff0c\u4e0d\u8981\u8fd9\u6837\u90a3\u4e48\u4f24\u5fc3\u3002
p4054
(lp4055
(L12L
V\u5973\u5b69\u5b50\u4e5f
p4056
V\u5973\u5b69\u5b50\u8036
p4057
tp4058
atp4059
a(V\u6211\u5e0c\u671b\u4f60\u8d76\u5feb\u575a\u56fa\u8d77\u6765\uff0c\u6211\u4f1a\u53bb\u7684\u65f6\u5019\u597d\u597d\u7684\u89c1\u9762\u3002
p4060
(lp4061
(L13L
V\u4f1a\u53bb
p4062
V\u56de\u53bb
p4063
tp4064
atp4065
a(V\u52a9\u4f60\u8eab\u4f53\u5065\u5eb7\u3002
p4066
(lp4067
(L1L
V\u52a9\u4f60
p4068
V\u795d\u4f60
p4069
tp4070
atp4071
a(V\u5e0c\u671b\u4f60\u7684\u51b0\u5757\u597d\uff0c\u4f60\u7684\u8eab\u4f53\u8d8a\u6765\u8d8a\u5065\u5eb7\uff01
p4072
(lp4073
(L5L
V\u4f60\u7684\u51b0
p4074
V\u4f60\u7684\u75c5
p4075
tp4076
a(L6L
V\u5757\u597d
p4077
V\u5feb\u597d
p4078
tp4079
atp4080
a(V\u4f60\u7684\u751f\u4f53\u73b0\u5728\u600e\u4e48\u4e86\uff1f\u8fd8\u597d\u5417\uff1f
p4081
(lp4082
(L3L
V\u751f\u4f53
p4083
V\u8eab\u4f53
p4084
tp4085
atp4086
a(V\u7b49\u4f60\u597d\u4e86\u4e00\u8d77\u53bb\u9493\u9c7c\u597d\u5417\uff1f\u4f60\u4e00\u8ba2\u8981\u5feb\u597d\u3002
p4087
(lp4088
(L15L
V\u4e00\u8ba2
p4089
V\u4e00\u5b9a
p4090
tp4091
atp4092
a(V\u6211\u5199\u8fd9\u4e30\u7535\u5b50\u90ae\u4ef6\u95ee\u4f60\uff0c\u73b0\u5728\u4f60\u7684\u8eab\u4f53\u600e\u4e48\u6837\u4e86\uff1f
p4093
(lp4094
(L4L
V\u8fd9\u4e30
p4095
V\u8fd9\u5c01
p4096
tp4097
atp4098
a(V\u56e0\u4e3a\u6211\u5de5\u4f5c\u6700\u8fd1\u5f88\u5fd9\u6ca1\u6709\u63a7\uff0c\u6211\u4e0d\u80fd\u53bb\u770b\u4f60\uff0c\u5bf9\u4e0d\u8d77\u4f60\u3002
p4099
(lp4100
(L12L
V\u6ca1\u6709\u63a7
p4101
V\u6ca1\u6709\u7a7a
p4102
tp4103
atp4104
a(V\u6211\u4eec\u7684\u540c\u5b66\u8ddf\u6211\u8bf4\u4f60\u795e\u75c5\uff0c\u4f60\u600e\u4e48\u6837\uff1f
p4105
(lp4106
(L10L
V\u795e\u75c5
p4107
V\u751f\u75c5
p4108
tp4109
atp4110
a(V\u8fd1\u6765\u5929\u6c14\u5f88\u51b7\uff0c\u542c\u8bf4\u73b0\u5728\u6709\u5f88\u591a\u4eba\u6839\u5192\u3002
p4111
(lp4112
(L16L
V\u6839\u5192
p4113
V\u611f\u5192
p4114
tp4115
atp4116
a(V\u6211\u5e0c\u671b\u4f60\u795e\u75c5\u5feb\u597d\uff0c\u4f60\u8981\u5403\u591a\u6c34\u679c\uff0c\u4ee5\u540e\u6211\u4eec\u53ef\u4ee5\u4e00\u8d77\u5403\u996d\u3002
p4117
(lp4118
(L5L
V\u795e\u75c5
p4119
V\u751f\u75c5
p4120
tp4121
atp4122
a(V\u6211\u5f88\u60f3\u8981\u53bb\u770b\u4f60\uff0c\u4e0d\u8fc7\u6211\u6700\u8fd1\u5de5\u4f5c\u592a\u5fd9\u4e0d\u80fd\u53bb\uff0c\u5e0c\u671b\u4f60\u5feb\u56de\u590d\u3002
p4123
(lp4124
(L26L
V\u56de\u590d
p4125
V\u6062\u590d
p4126
tp4127
atp4128
a(V\u60a8\u597d\uff0c\u5367\u662f\u674e\u3002\u60a8\u7684\u8eab\u4f53\u600e\u4e48\u6837\uff1f
p4129
(lp4130
(L4L
V\u5367\u662f\u674e
p4131
V\u6211\u662f\u674e
p4132
tp4133
atp4134
a(V\u5373\u7136\u6211\u8981\u8ddf\u4f60\u89c1\u9762\uff0c\u53ef\u662f\u5e94\u8be5\u5e2e\u4ed6\uff0c\u53ef\u4e0d\u53ef\u4ee5\u6539\u5929\u5417\uff1f
p4135
(lp4136
(L1L
V\u5373\u7136
p4137
V\u65e2\u7136
p4138
tp4139
atp4140
a(V\u6211\u771f\u7684\u62c5\u5fc3\u4f60\uff0c\u4e5f\u60f3\u770b\u4f60\u53ef\u662f\u73b0\u5728\u6211\u4e0d\u5728\u53f0\u676f\u6240\u4ee5\u771f\u7684\u4e0d\u80fd\u770b\u4f60\uff0c\u771f\u7684\u5bf9\u4f60\u4e0d\u597d\u610f\u601d\u3002
p4141
(lp4142
(L20L
V\u53f0\u676f
p4143
V\u53f0\u5317
p4144
tp4145
atp4146
a(V\u4f60\u7684\u8eab\u4f53\u62ff\u91cc\u4e0d\u597d\u5462\uff1f
p4147
(lp4148
(L5L
V\u62ff\u91cc
p4149
V\u54ea\u91cc
p4150
tp4151
atp4152
a(V\u6211\u5e0c\u671b\u4f60\u7684\u75c5\u8d8a\u6765\u8d8a\u597d\uff0c\u8eab\u4f53\u8d8a\u6765\u8d8a\u5efa\u5eb7\u3002
p4153
(lp4154
(L17L
V\u5efa\u5eb7
p4155
V\u5065\u5eb7
p4156
tp4157
atp4158
a(V\u963f\uff0c\u5bf9\u4e86\uff01\u6211\u56de\u6765\u4e00\u5b9a\u9001\u7ed9\u4f60\u4e00\u4e2a\u793c\u7269\u3002
p4159
(lp4160
(L1L
V\u963f
p4161
V\u554a
p4162
tp4163
atp4164
a(V\u6211\u770b\u4f60\u4ece\u6765\u90fd\u6ca1\u6709\u4f11\u606f\u7684\u65f6\u95f4\uff0c\u6b63\u5929\u90fd\u662f\u5de5\u4f5c\u7684\u3002
p4165
(lp4166
(L15L
V\u6b63\u5929
p4167
V\u6574\u5929
p4168
tp4169
atp4170
a(V\u6211\u5e0c\u671b\u4f60\u7684\u8eab\u4f53\u597d\u4e86\u53ef\u662f\u5982\u679c\u6211\u7684\u51b0\u5c31\u597d\u4e86\u5feb\u5230\u4e86\uff0c\u6211\u4e00\u5b9a\u9a6c\u4e0a\u53bb\u4f60\u7684\u73c8\u548c\u7ed9\u4f60\u793c\u9047\u3002
p4171
(lp4172
(L16L
V\u6211\u7684\u51b0
p4173
V\u6211\u7684\u75c5
p4174
tp4175
a(L32L
V\u4f60\u7684\u73c8
p4176
V\u4f60\u7684\u5bb6
p4177
tp4178
atp4179
a(V\u6211\u6628\u5929\u6253\u7535\u8bdd\u7ed9\u4e86\u4f60\u5988\u5988\uff0c\u5979\u8bf4\u4f60\u611f\u5192\u4f4f\u9662\u4e86\uff0c\u6211\u542c\u4e86\u4ee5\u540e\u771f\u5f97\u5f88\u62c5\u5fc3\u3002
p4180
(lp4181
(L28L
V\u771f\u5f97
p4182
V\u771f\u7684
p4183
tp4184
atp4185
a(V\u542c\u8bf4\u4f60\u751f\u75c5\u4e86\uff0c\u4e5f\u4e0d\u770b\u5230\u4f60\u4e0a\u4e2a\u3002
p4186
(lp4187
(L14L
V\u4e0a\u4e2a
p4188
V\u4e0a\u8bfe
p4189
tp4190
atp4191
a(V\u4f60\u7684\u8eab\u4f53\u4ec0\u4e48\u6837\uff1f\u4f60\u751f\u4ec0\u4e48\u75c5\u4e86\uff1f
p4192
(lp4193
(L5L
V\u4ec0\u4e48\u6837
p4194
V\u600e\u4e48\u6837
p4195
tp4196
atp4197
a(V\u5988\u5988\u4e0d\u4f1a\u8bf4\u4e2d\u6587\uff0c\u800c\u4e14\u4ed6\u4e0d\u8981\u4e00\u4e2a\u4eba\u5728\u5bb6\u91cc\u3002
p4198
(lp4199
(L11L
V\u4ed6\u4e0d\u8981
p4200
V\u5979\u4e0d\u8981
p4201
tp4202
atp4203
a(V\u5bf9\u4e0d\u8d77\uff0c\u6211\u8fd9\u4e2a\u91cc\u62dc\u6709\u5f88\u591a\u4e8b\uff0c\u5fd9\u5f97\u4e0d\u5f97\u4e86\uff0c\u8fd8\u6ca1\u6709\u65f6\u95f4\u53bb\u770b\u4f60\u3002
p4204
(lp4205
(L8L
V\u91cc\u62dc
p4206
V\u793c\u62dc
p4207
tp4208
atp4209
a(V\u6211\u5e0c\u51a0\u4f60\u5feb\u8981\u597d\u4e86\u3002
p4210
(lp4211
(L3L
V\u5e0c\u51a0
p4212
V\u5e0c\u671b
p4213
tp4214
atp4215
a(V\u4e0a\u4e2a\u5468\u672b\u6709\u7a7a\uff0c\u6211\u4f1a\u53bb\u770b\u4f60\u3002
p4216
(lp4217
tp4218
a(V\u53d7\u5230\u4f60\u7684\u4fe1\u6211\u5f88\u9ad8\u5174\uff01\u4e5f\u5f88\u60f3\u56de\u4fe1\uff0c\u53ef\u662f\u6211\u4e00\u5fd9\u5c31\u5fd8\u4e86\u3002
p4219
(lp4220
(L1L
V\u53d7\u5230
p4221
V\u6536\u5230
p4222
tp4223
atp4224
a(V\u53ef\u60dc\u6211\u4e0d\u80fd\u53c2\u52a0\uff0c\u56e0\u4e3a\u73b0\u5728\u6211\u6b63\u5728\u53f0\u5357\u5ff5\u7814\u7a76\u6240\uff0c\u8fd8\u6709\u660e\u5929\u8ddf\u540e\u5929\u6211\u5f97\u8003\u5176\u672b\u8003\u4e86\u3002
p4225
(lp4226
(L33L
V\u5176\u672b\u8003
p4227
V\u671f\u672b\u8003
p4228
tp4229
atp4230
a(V\u795d\u65b0\u6d6a\u3001\u65b0\u5a18\uff1a\u300c\u6c38\u8fdc\u5feb\u4e50\uff01\u65e9\u751f\u8d35\u5b50\uff01\u300d
p4231
(lp4232
(L3L
V\u65b0\u6d6a
p4233
V\u65b0\u90ce
p4234
tp4235
atp4236
a(V\u6211\u4eec\u5df2\u7ecf\u7ea6\u4f1a\u65f6\u95f4\uff0c\u6211\u4eec\u771f\u5f97\u6ca1\u6709\u529e\u6cd5\u53bb\uff0c\u56e0\u4e3a\u6211\u4e00\u5b9a\u6765\u4e0d\u8d77\u3002
p4237
(lp4238
(L13L
V\u771f\u5f97
p4239
V\u771f\u7684
p4240
tp4241
a(L27L
V\u6765\u4e0d\u8d77
p4242
V\u6765\u4e0d\u53ca
p4243
tp4244
atp4245
a(V\u6211\u8981\u8ddf\u4f60\u4eec\u8bf4\u606d\u559c\u606d\u559c\uff0c\u6211\u5e0c\u671b\u4f60\u95e8\u60f3\u8981\u7684\u4e1c\u897f\u90fd\u53ef\u4ee5\u62ff\u5f97\u5230\u3002
p4246
(lp4247
(L16L
V\u4f60\u95e8
p4248
V\u4f60\u4eec
p4249
tp4250
atp4251
a(V\u6211\u53d7\u5230\u4e86\u4e00\u5c01\u9080\u8bf7\u5361\uff0c\u6211\u60f3\u53bb\u4f60\u4eec\u7684\u5a5a\u793c\u795d\u798f\u4f60\u4eec\uff0c\u4e0d\u8fc7\u56e0\u4e3a\u6211\u521a\u597d\u4f60\u4eec\u5a5a\u793c\u90a3\u5929\u6211\u8981\u8003\u8bd5\u3002
p4252
(lp4253
(L2L
V\u53d7\u5230
p4254
V\u6536\u5230
p4255
tp4256
atp4257
a(V\u6211\u63d0\u4f60\u4eec\u5f88\u9ad8\u5174\u5594\u3002
p4258
(lp4259
(L2L
V\u63d0\u4f60\u4eec
p4260
V\u66ff\u4f60\u4eec
p4261
tp4262
atp4263
a(V\u6211\u5f88\u5f00\u5174\u77e5\u9053\u4f60\u4eec\u4e94\u6708\u4e8c\u5341\u65e5\u5c31\u8981\u7ed3\u5a5a\u4e86\u3002
p4264
(lp4265
(L4L
V\u5f00\u5174
p4266
V\u5f00\u5fc3
p4267
tp4268
atp4269
a(V\u4f60\u4eec\u8981\u7ed3\u5a5a\u90a3\u5929\u6211\u5f88\u5fd9\uff0c\u90a3\u5929\u6211\u8981\u53bb\u70e4\u5e08\u3002
p4270
(lp4271
(L17L
V\u70e4\u5e08
p4272
V\u8003\u8bd5
p4273
tp4274
a(L18L
g4272
g4273
tp4275
atp4276
a(V\u8bf7\u7231\u674e\u5927\u660e\u548c\u6797\u5c0f\u7f8e\uff0c\u8c22\u8c22\u9080\u8bf7\u6211\u59b3\u4eec\u7684\u5a5a\u9f84\u3002
p4277
(lp4278
(L14L
V\u8bf7\u7231
p4279
V\u4eb2\u7231
p4280
tp4281
a(L20L
V\u5a5a\u9f84
p4282
V\u5a5a\u793c
p4283
tp4284
atp4285
a(V\u6211\u5f88\u9ad8\u5174\u4f60\u4eec\u7ed3\u5a5a\u4e86\uff0c\u96be\u602a\u70ed\u5fc3\u7684\u4e0d\u5f97\u4e86\u3002
p4286
(lp4287
(L15L
V\u70ed\u5fc3\u7684\u4e0d\u5f97\u4e86
p4288
V\u70ed\u5fc3\u5f97\u4e0d\u5f97\u4e86
p4289
tp4290
atp4291
a(V\u5e86\u795d\u4f60\u7684\u7ed3\u660f\uff0c\u53ef\u662f\u6211\u6709\u56fd\u5916\u51fa\u5dee\uff0c\u6240\u4ee5\u6211\u4e0d\u80fd\u63ba\u52a0\u3002
p4292
(lp4293
(L6L
V\u7ed3\u660f
p4294
V\u7ed3\u5a5a
p4295
tp4296
a(L22L
V\u63ba\u52a0
p4297
V\u53c2\u52a0
p4298
tp4299
atp4300
a(V\u6211\u5f88\u9ad8\u5174\u53d7\u5230\u4f60\u4eec\u7ed3\u5a5a\u7684\u9080\u8bf7\u5355\uff0c\u4f60\u4eec\u5230\u5e95\u51b3\u5b9a\u7ed3\u5a5a\u4e86\uff01
p4301
(lp4302
(L5L
V\u53d7\u5230
p4303
V\u6536\u5230
p4304
tp4305
atp4306
a(V\u611f\u8c22\u4f60\u4eec\u5bc4\u7ed9\u6211\u7684\u8fb9\u8bf7\u5361\u3002
p4307
(lp4308
(L9L
V\u8fb9\u8bf7\u5361
p4309
V\u9080\u8bf7\u5361
p4310
tp4311
atp4312
a(V\u56e0\u4e3a\u6211\u6ce8\u5728\u79d8\u9c81\u7684\u5976\u5976\u751f\u75c5\u5f97\u5f88\u4e25\u91cd\u3002
p4313
(lp4314
(L4L
V\u6ce8\u5728
p4315
V\u4f4f\u5728
p4316
tp4317
atp4318
a(V\u6211\u6015\u5979\u8fd9\u51e0\u5929\u53ef\u80fd\u4f1a\u8fc7\u4e16\uff0c\u56e0\u6b64\u6211\u8ba1\u753b\u4e0b\u793c\u62dc\u53bb\u5bc6\u9c81\u63a2\u4eb2\u3002
p4319
(lp4320
(L22L
V\u5bc6\u9c81
p4321
V\u79d8\u9c81
p4322
tp4323
atp4324
a(V\u5e0c\u671b\u4f60\u4eec\u90a3\u4e2a\u5f88\u7279\u522b\u7684\u4e00\u5929\u8fc7\u7684\u5f88\u5f00\u5fc3\uff01
p4325
(lp4326
(L14L
V\u8fc7\u7684\u5f88\u5f00\u5fc3
p4327
V\u8fc7\u5f97\u5f88\u5f00\u5fc3
p4328
tp4329
atp4330
a(V\u6211\u5f88\u9ad8\u5174\u4f60\u4eec\u8981\u8bf7\u6211\u53c2\u52a0\u4f60\u4eec\u7684\u5bf0\u9e9f\u3002
p4331
(lp4332
(L7L
V\u8981\u8bf7
p4333
V\u9080\u8bf7
p4334
tp4335
a(L15L
V\u5bf0\u9e9f
p4336
V\u5a5a\u793c
p4337
tp4338
a(L16L
g4336
g4337
tp4339
atp4340
a(V\u597d\u53ef\u60dc\u6211\u4e0b\u4e2a\u793c\u62dc\u8981\u56de\u56fd\uff0c\u6211\u5df2\u7ecf\u4e70\u8fc7\u98de\u673a\u7968\u6240\u4ee5\u6ca1\u529e\u6cd5\u90a3\u5929\u8ddf\u4f60\u4eec\u4e00\u8d77\u5e86\u795d\u4f60\u4eec\u7684\u5bf0\u9e9f\u3002
p4341
(lp4342
(L38L
V\u5bf0\u9e9f
p4343
V\u5a5a\u793c
p4344
tp4345
a(L39L
g4343
g4344
tp4346
atp4347
a(V\u90a3\u4e00\u5929\u6211\u56de\u60f3\u59b3\u4eec\u6240\u4ee5\u6211\u8ddf\u4f60\u4eec\u4f1a\u6253\u7535\u8bdd\uff01
p4348
(lp4349
(L5L
V\u6211\u56de\u60f3\u59b3\u4eec
p4350
V\u6211\u4f1a\u60f3\u4f60\u4eec
p4351
tp4352
a(L7L
g4350
g4351
tp4353
atp4354
a(V\u8c22\u8c22\u4f60\u4eec\u5bc4\u7ed9\u6211\u7ecd\u5f85\u5361\uff0c\u6211\u5f88\u9ad8\u5174\u3002
p4355
(lp4356
(L8L
V\u7ecd\u5f85\u5361
p4357
V\u62db\u5f85\u5361
p4358
tp4359
atp4360
a(V\u6211\u542c\u5230\u59b3\u4eec\u4e0b\u4e2a\u6708\u8981\u7ed3\u5a5a\u4e86\uff0c\u6211\u89c9\u5f97\u5f88\u9ad8\u5174\uff0c\u606d\u559c\uff0c\u606d\u559c\u3002
p4361
(lp4362
(L4L
V\u59b3\u4eec
p4363
V\u4f60\u4eec
p4364
tp4365
atp4366
a(V\u606d\u559c\u59b3\u4eec\u6c38\u8fdc\u5e78\u798f\uff0c\u65e9\u751f\u5b69\u5b50\uff0c\u606d\u559c\u606d\u559c\u3002
p4367
(lp4368
(L3L
V\u59b3\u4eec
p4369
V\u4f60\u4eec
p4370
tp4371
atp4372
a(V\u6211\u795d\u798f\u4f60\u4eec\u5e78\u798f\u5feb\u4e50\u7684\u8fc7\u6bcf\u4e00\u4e2a\u65e5\u5b50\u3002
p4373
(lp4374
(L10L
V\u5e78\u798f\u5feb\u4e50\u7684\u8fc7
p4375
V\u5e78\u798f\u5feb\u4e50\u5730\u8fc7
p4376
tp4377
atp4378
a(V\u521a\u597d\u516c\u53f8\u6392\u6211\u53bb\u6de1\u751f\u610f\uff0c\u6240\u4ee5\u6211\u8d70\u4e0d\u5f00\u7684\u3002
p4379
(lp4380
(L5L
V\u516c\u53f8\u6392\u6211
p4381
V\u516c\u53f8\u6d3e\u6211
p4382
tp4383
a(L8L
V\u6de1\u751f\u610f
p4384
V\u8c08\u751f\u610f
p4385
tp4386
atp4387
a(V\u5982\u8fc7\u6709\u7a7a\uff0c\u4e0b\u4e00\u6b21\u6211\u4eec\u518d\u4e00\u8d77\u5403\u996d\u628a\uff01
p4388
(lp4389
(L2L
V\u5982\u8fc7
p4390
V\u5982\u679c
p4391
tp4392
a(L16L
V\u4e00\u8d77\u5403\u996d\u628a
p4393
V\u4e00\u8d77\u5403\u996d\u5427
p4394
tp4395
atp4396
a(V\u6211\u53bb\u54ea\u91cc\uff0c\u7136\u540e\u6211\u8981\u544a\u8bc9\u4f60\u4eec\u606d\u559c\u4f60\u4eec\uff01
p4397
(lp4398
(L3L
V\u54ea\u91cc
p4399
V\u90a3\u91cc
p4400
tp4401
atp4402
a(V\u6bcf\u4e2a\u4eba\u5e26\u4e0d\u4e00\u6837\u7684\u4e1c\u897f\uff0c\u4e5f\u5e38\u4e0d\u4e00\u6837\u7684\u8863\u670d\u3002
p4403
(lp4404
(L13L
V\u5e38\u4e0d\u4e00\u6837
p4405
V\u7a7f\u4e0d\u4e00\u6837
p4406
tp4407
atp4408
a(V\u4ed6\u4eec\u505a\u4e8c\u4e5d\u4e03\u7684\u516c\u8f66\u53bb\u3002
p4409
(lp4410
(L3L
V\u505a\u4e8c\u4e5d\u4e03\u7684\u516c\u8f66
p4411
V\u5750\u4e8c\u4e5d\u4e03\u7684\u516c\u8f66
p4412
tp4413
atp4414
a(V\u4ed6\u4eec\u51b3\u5b9a\u4e0b\u96e8\u592a\u5927\u4e86\uff0c\u6ca1\u6709\u529e\u6cd5\u51e0\u5e0c\u5728\u5916\u9762\u70e4\u8089\u3002
p4415
(lp4416
(L15L
V\u51e0\u5e0c
p4417
V\u7ee7\u7eed
p4418
tp4419
a(L16L
g4417
g4418
tp4420
atp4421
a(V\u4ed6\u4eec\u7684\u8863\u670d\u90fd\u4e0d\u5e72\u3002
p4422
(lp4423
tp4424
a(V\u6211\u95e8\u7684\u4f9d\u670d\u901a\u901a\u90fd\u846c\u4e86\uff0c\u8089\u4e5f\u8fd8\u6ca1\u5403\u3002
p4425
(lp4426
(L2L
V\u6211\u95e8
p4427
V\u6211\u4eec
p4428
tp4429
a(L4L
V\u4f9d\u670d
p4430
V\u8863\u670d
p4431
tp4432
a(L9L
V\u846c\u4e86
p4433
V\u810f\u4e86
p4434
tp4435
atp4436
a(V\u6700\u540e\u6211\u95e8\u8981\u6765\u9910\u5e97\u5403\u996d\u3002
p4437
(lp4438
(L4L
V\u6211\u95e8
p4439
V\u6211\u4eec
p4440
tp4441
atp4442
a(V\u4ed6\u4eec\u8981\u5750\u516c\u8f66\u53bb\u91ce\u9910\uff0c\u7b49\u516c\u8f66\u7684\u65f6\u5019\uff0c\u4ed6\u4eec\u90fd\u9ad8\u9ad8\u5174\u5174\u5730\u8bf4\u4eca\u5929\u5f97\u8ba1\u753b\u3002
p4443
(lp4444
(L29L
V\u4eca\u5929\u5f97\u8ba1\u753b
p4445
V\u4eca\u5929\u7684\u8ba1\u753b
p4446
tp4447
atp4448
a(V\u4ed6\u4eec\u51c6\u5907\u4e86\u5f88\u591a\u5403\u7684\u4e1c\u897f\uff0c\u50cf\u70e4\u70e7\uff0c\u6c7d\u6c34\u3001\u4ec0\u4e48\u7684\u3002
p4449
(lp4450
tp4451
a(V\u738b\u5929\u534e\u5f00\u5fc3\u5f97\u4e00\u76f4\u8bf4\u8bdd\u3002
p4452
(lp4453
(L6L
V\u5f00\u5fc3\u5f97
p4454
V\u5f00\u5fc3\u5730
p4455
tp4456
atp4457
a(V\u8bf4\u4e0d\u4e86\u51e0\u53e5\u8bdd\uff0c\u949f\u5c31\u4e0b\u8d77\u96e8\u6765\u4e86\uff0c\u4ed6\u4eec\u6025\u7740\u627e\u522b\u7684\u5730\u65b9\u3002
p4458
(lp4459
(L8L
V\u949f\u5c31
p4460
V\u7ec8\u7a76
p4461
tp4462
a(L9L
g4460
g4461
tp4463
atp4464
a(V\u4ed6\u4eec\u8981\u642d\uff12\uff19\uff17\u53f7\u5171\u8f66\u5230\u5c71\u4e0a\u65c5\u884c\u3002
p4465
(lp4466
(L9L
V\u5171\u8f66
p4467
V\u516c\u8f66
p4468
tp4469
atp4470
a(V\u5929\u6c14\u771f\u4e0d\u9519\uff0c\u4ed6\u4eec\u5f88\u5f00\u5fc3\u7684\u4e00\u8fb9\u804a\u5929\u4e00\u8fb9\u70e4\u8089\u3002
p4471
(lp4472
(L12L
V\u5f00\u5fc3\u7684
p4473
V\u5f00\u5fc3\u5730
p4474
tp4475
atp4476
a(V\u4e0d\u8fc7\u5929\u6c14\u600e\u4e48\u5154\u7136\u53d8\u4e86\uff0c\u5f88\u5feb\u5929\u5c31\u53d8\u9ed1\u4e86\u3002
p4477
(lp4478
(L7L
V\u5154\u7136
p4479
V\u7a81\u7136
p4480
tp4481
atp4482
a(V\u4e0d\u4e45\u4e0b\u4e86\u5927\u96e8\uff0c\u5bb3\u4ed6\u4eec\u624b\u5fd9\u811a\u4e71\u627e\u4e0d\u6797\u96e8\u7684\u5730\u65b9\u3002
p4483
(lp4484
(L17L
V\u6797\u96e8
p4485
V\u6dcb\u96e8
p4486
tp4487
atp4488
a(V\u4ed6\u95e8\u9a6c\u4e0a\u6253\u5305\u90fd\u4e1c\u897f\uff0c\u4e0b\u96e8\u66f4\u5927\uff0c\u6240\u4ee5\u4ed6\u4eec\u642c\u5230\u522b\u7684\u5730\u65b9\u3002
p4489
(lp4490
(L2L
V\u4ed6\u95e8
p4491
V\u4ed6\u4eec
p4492
tp4493
atp4494
a(V\u6211\u4eec\u65e9\u4e0a\u96c6\u5408\uff0c\u5927\u5bb6\u90fd\u5e26\u5f88\u591a\u4e1c\u897f\uff0c\u7136\u540e\u5ea7\u516c\u8f66\u5927\u6982\uff11\uff15\u5206\u949f\u5c31\u5230\u4e86\u70e4\u8089\u7684\u5730\u65b9\u3002
p4495
(lp4496
(L19L
V\u5ea7\u516c\u8f66
p4497
V\u5750\u516c\u8f66
p4498
tp4499
atp4500
a(V\u65e9\u4e0a\u505a\u516c\u8f66\u53bb\u5c71\u4e0a\uff0c\u5230\u4e86\u4ee5\u540e\uff0c\u6211\u4eec\u5c31\u9a6c\u4e0a\u5f00\u59cb\u505a\u996d\u3002
p4501
(lp4502
(L3L
V\u505a\u516c\u8f66
p4503
V\u5750\u516c\u8f66
p4504
tp4505
atp4506
a(V\u4ed6\u4eec\u628a\u96ea\u8981\u7684\u4e1c\u897f\u51c6\u5907\u597d\u4e86\u5c31\u5750\u4e8c\u4e5d\u4e03\u53f7\u516c\u8f66\u3002
p4507
(lp4508
(L4L
V\u96ea\u8981
p4509
V\u9700\u8981
p4510
tp4511
atp4512
a(V\u4e0b\u8f66\u540e\u4ed6\u4eec\u70ed\u5fc3\u7684\u6ca1\u8bdd\u8bf4\u4e86\uff0c\u56e0\u4e3a\u54ea\u4e2a\u5730\u65b9\u975e\u5e38\u597d\u3002
p4513
(lp4514
(L8L
V\u70ed\u5fc3\u7684
p4515
V\u70ed\u5fc3\u5730
p4516
tp4517
a(L16L
V\u54ea\u4e2a
p4518
V\u90a3\u4e2a
p4519
tp4520
atp4521
a(V\u4e0d\u8fc7\u5f97\u51c6\u5907\u7684\u4e1c\u897f\u4e0d\u4f46\u5403\u7684\uff0c\u800c\u4e14\u5bf9\u4f11\u9592\u6d3b\u52a8\u6765\u8bf4\u6709\u4e86\u597d\u597d\u5730\u7ecf\u9a8c\uff01
p4522
(lp4523
(L27L
V\u597d\u597d\u5730\u7ecf\u9a8c
p4524
V\u597d\u597d\u7684\u7ecf\u9a8c
p4525
tp4526
atp4527
a(V\u6211\u95e8\u662f\u738b\u5929\u534e\u7684\u5bb6\u4eba\u3002
p4528
(lp4529
(L2L
V\u6211\u95e8
p4530
V\u6211\u4eec
p4531
tp4532
atp4533
a(V\u6211\u95e8\u5bb6\u7684\u4eba\u8981\u53bb\u91ce\u9910\u5ea7\u7a7a\u7a7a\u6c7d\u8f66\u3002
p4534
(lp4535
(L2L
V\u6211\u95e8
p4536
V\u6211\u4eec
p4537
tp4538
a(L10L
V\u5ea7\u7a7a\u7a7a\u6c7d\u8f66
p4539
V\u5750\u516c\u5171\u6c7d\u8f66
p4540
tp4541
a(L11L
g4539
g4540
tp4542
a(L12L
g4539
g4540
tp4543
atp4544
a(V\u6211\u95e8\u53ef\u4ee5\u5230\u5916\u9762\uff0c\u5403\u5f88\u591a\u4e1c\u897f\u4e86\u3002
p4545
(lp4546
(L2L
V\u6211\u95e8
p4547
V\u6211\u4eec
p4548
tp4549
atp4550
a(V\u53ef\u662f\u6d82\u7136\u4e0b\u96e8\u5f88\u5927\uff0c\u6240\u4ee5\u6211\u4eec\u4e0d\u80fd\u5728\u5916\u9762\u3002
p4551
(lp4552
(L3L
V\u6d82\u7136
p4553
V\u7a81\u7136
p4554
tp4555
atp4556
a(V\u6211\u4eec\u6765\u5bb6\u91cc\u9762\uff0c\u7136\u540e\u8ba8\u6da6\u4ee5\u4e0b\u600e\u4e48\u56de\u53bb\u3002
p4557
(lp4558
(L11L
V\u8ba8\u6da6\u4ee5\u4e0b
p4559
V\u8ba8\u8bba\u4e00\u4e0b
p4560
tp4561
a(L12L
g4559
g4560
tp4562
atp4563
a(V\u597d\u5c31\u6211\u4eec\u6ca1\u770b\u89c1\uff0c\u6240\u4ee5\u5f88\u9ad8\u5174\u3002
p4564
(lp4565
(L2L
V\u597d\u5c31
p4566
V\u597d\u4e45
p4567
tp4568
atp4569
a(V\u6211\u4eec\u5728\u9760\u4e1c\u897f\uff0c\u8fd8\u6ca1\u5b8c\u5728\u4e0b\u96e8\u6709\u4e00\u70b9\u4e0d\u597d\uff0c\u53ef\u662f\u6211\u89c9\u5f97\u8fd8\u5f88\u9ad8\u5174\u3001\u5f88\u6709\u610f\u601d\u3002
p4570
(lp4571
(L4L
V\u9760\u4e1c\u897f
p4572
V\u70e4\u4e1c\u897f
p4573
tp4574
atp4575
a(V\u5403\u4e86\u996d\uff0c\u6211\u4eec\u7684\u8863\u670d\u90fd\u611f\u3002
p4576
(lp4577
(L11L
V\u90fd\u611f
p4578
V\u90fd\u5e72
p4579
tp4580
atp4581
a(V\u53bb\u4e07\u5f88\u7d2f\uff0c\u53ef\u662f\u5f88\u6709\u610f\u601d\u3002
p4582
(lp4583
(L2L
V\u53bb\u4e07
p4584
V\u53bb\u73a9
p4585
tp4586
atp4587
a(V\u7136\u540e\u5df4\u58eb\u6765\u4e86\uff0c\u4ed6\u4eec\u5f88\u9ad8\u5174\u5f97\u8fd1\u53bb\u3002
p4588
(lp4589
(L13L
V\u9ad8\u5174\u5f97
p4590
V\u9ad8\u5174\u5730
p4591
tp4592
a(L14L
V\u8fd1\u53bb
p4593
V\u8fdb\u53bb
p4594
tp4595
atp4596
a(V\u5230\u4e86\u65f6\u5019\uff0c\u4ed6\u4eec\u5c31\u5f00\u59cb\u8003\u98df\u7269\u3002
p4597
(lp4598
(L11L
V\u8003\u98df\u7269
p4599
V\u70e4\u98df\u7269
p4600
tp4601
atp4602
a(V\u5c0f\u6587\u3001\u5c0f\u660e\u548c\u5c0f\u534e\u5728\u8003\u3002
p4603
(lp4604
(L10L
V\u5728\u8003
p4605
V\u5728\u70e4
p4606
tp4607
atp4608
a(V\u6ca1\u60f3\u5230\uff0c\u600e\u4e48\u4f1a\u4e0b\u5927\u96e8\uff0c\u4ed6\u4eec\u4e0d\u80fd\u8003\u98df\u7269\u4e86\u3002
p4609
(lp4610
(L16L
V\u8003\u98df\u7269
p4611
V\u70e4\u98df\u7269
p4612
tp4613
atp4614
a(V\u5e94\u4e3a\u5929\u6c14\u90a3\u4e48\u597d\uff0c\u738b\u5929\u534e\u8ddf\u4ed6\u7684\u975e\u6d32\u4e0e\u53f0\u6e7e\u670b\u53cb\u51b3\u5b9a\u5750\uff12\uff19\uff17\u516c\u8f66\u53bb\u4e61\u4e0b\u73a9\u3002
p4615
(lp4616
(L1L
V\u5e94\u4e3a
p4617
V\u56e0\u4e3a
p4618
tp4619
atp4620
a(V\u5927\u5bb6\u90fd\u5f00\u5fc3\u8d77\u4e86\uff01\u771f\u662f\u597d\u7f8e\u91cc\u7684\u4e00\u5929\u5594\uff01
p4621
(lp4622
(L13L
V\u7f8e\u91cc
p4623
V\u7f8e\u4e3d
p4624
tp4625
atp4626
a(V\u4ed6\u4ea4\u4ed6\u7684\u670b\u53cb\u600e\u4e48\u4ed6\u5728\u7f8e\u56fd\u6765\u70e4\u8f6f\u7cd6\u7684\u65b9\u5f0f\u3002
p4627
(lp4628
(L2L
V\u4ea4\u4ed6\u7684\u670b\u53cb
p4629
V\u6559\u4ed6\u7684\u670b\u53cb
p4630
tp4631
atp4632
a(V\u53ef\u662f\u6211\u4eec\u5728\u505a\u83dc\u5929\u6c14\u4e0b\u96e8\uff0c\u6211\u4eec\u6234\u4e1c\u897f\u5230\u996d\u9986\u513f\u3002
p4633
(lp4634
(L15L
V\u6234\u4e1c\u897f
p4635
V\u5e26\u4e1c\u897f
p4636
tp4637
atp4638
a(V\u8fc7\u5341\u5206\u949f\uff0c\u5929\u6c14\u4e0b\u96e8\uff0c\u6211\u4eec\u8dd1\u7684\u5f88\u5feb\u3002
p4639
(lp4640
(L13L
V\u8dd1\u7684\u5f88\u5feb
p4641
V \u8dd1\u5f97\u5f88\u5feb
p4642
tp4643
atp4644
a(V\u5230\u4e86\u4e00\u5bb6\u5546\u5e97\uff0c\u6211\u4eec\u4f11\u8478\u4e00\u4f1a\u513f\u3002
p4645
(lp4646
(L11L
V\u4f11\u8478
p4647
V\u4f11\u606f
p4648
tp4649
atp4650
a(V\u5ea7\u4e0b\u770b\u83dc\u5355\u7684\u65f6\u5019\uff0c\u592a\u53ef\u60dc\u4e86\uff0c\u53ea\u6709\u9c7c\u53ef\u4ee5\u5403\u4e86\u3002
p4651
(lp4652
(L1L
V\u5ea7\u4e0b
p4653
V\u5750\u4e0b
p4654
tp4655
atp4656
a(V\u5c0f\u7f8e\u597d\u50cf\u662f\u62df\u8d8a\u6765\u8d8a\u6f02\u4eae\u4e86\u3002
p4657
(lp4658
(L6L
V\u62df\u8d8a\u6765\u8d8a\u6f02\u4eae
p4659
V\u59b3\u8d8a\u6765\u8d8a\u6f02\u4eae
p4660
tp4661
atp4662
a(V\u5bf9\u963f\uff0c\u6211\u4eec\u5feb\u70e4\u8089\u5427\uff01
p4663
(lp4664
(L2L
V\u5bf9\u963f
p4665
V\u5bf9\u554a
p4666
tp4667
atp4668
a(V\u6211\u53c8\u8ddf\u7238\u7238\u5988\u5988\u53bb\u7f8e\u56fd\u73a9\uff0c\u7f8e\u56fd\u98ce\u666f\u597d\u6f02\u4eae\uff0c\u4ea4\u901a\u5f88\u65c1\u8fb9\u3002
p4669
(lp4670
(L2L
V\u53c8\u8ddf
p4671
V\u6709\u8ddf
p4672
tp4673
a(L24L
V\u65c1\u8fb9
p4674
V\u65b9\u4fbf
p4675
tp4676
a(L25L
g4674
g4675
tp4677
atp4678
a(V\u597d\u4e86\uff0c\u7f8e\u5173\u7cfb\u4e86\u3002\u6211\u4eec\u5750\u4e0b\u6765\u5403\u996d\u5427\uff01
p4679
(lp4680
(L4L
V\u7f8e\u5173\u7cfb
p4681
V\u6ca1\u5173\u7cfb
p4682
tp4683
atp4684
a(V\u8fc7\u4e86\u4e09\u5341\u5206\u949f\u540e\uff0c\u4e0b\u7740\u96e8\u4e86\uff01
p4685
(lp4686
tp4687
a(V\u4ed6\u4eec\u4e00\u6241\u5403\uff0c\u4e00\u6241\u804a\u5929\u3002
p4688
(lp4689
(L4L
V\u4e00\u6241\u5403
p4690
V\u4e00\u8fb9\u5403
p4691
tp4692
a(L8L
V\u4e00\u6241\u804a\u5929
p4693
V\u4e00\u8fb9\u804a\u5929
p4694
tp4695
atp4696
a(V\u4ed6\u4eec\u4e0d\u9ad8\u5174\u56e0\u4e3a\u4ed6\u4eec\u7684\u8863\u670d\u6eaa\u6eaa\u7684\u3002
p4697
(lp4698
(L13L
V\u6eaa\u6eaa\u7684
p4699
V\u6e7f\u6e7f\u7684
p4700
tp4701
a(L14L
g4699
g4700
tp4702
atp4703
a(V\u5929\u534e\u77e5\u9053\u6211\u559c\u6b22\u5403\u70e4\u8089\uff0c\u6240\u5df2\u9700\u8981\u7684\u4e1c\u897f\u5979\u90fd\u51c6\u5907\u597d\u4e86\u3002
p4704
(lp4705
(L13L
V\u6240\u5df2
p4706
V\u6240\u4ee5
p4707
tp4708
atp4709
a(V\u4eca\u5929\u662f\u5b66\u6821\u7684\u6700\u540e\u4e00\u5929\uff0c\u5c0f\u670b\u53cb\u597d\u5174\u594b\u5f97\u4e0a\u5b66\u6821\u7684\u8f66\u3002
p4710
(lp4711
(L18L
V\u5174\u594b\u5f97
p4712
V\u5174\u594b\u5730
p4713
tp4714
atp4715
a(V\u7238\u7238\u4eec\u9ad8\u9ad8\u5174\u5174\u7684\u9001\u5b69\u5b50\u4eec\u5230\u505c\u8f66\u7ad9\u3002
p4716
(lp4717
(L8L
V\u9ad8\u9ad8\u5174\u5174\u7684
p4718
V\u9ad8\u9ad8\u5174\u5174\u5730
p4719
tp4720
atp4721
a(V\u5927\u5bb6\u5e94\u8be5\u627e\u4e00\u68f5\u5927\u6811\u53ef\u80fd\u4fee\u7cfb\u5427\u3002
p4722
(lp4723
(L12L
V\u4fee\u7cfb
p4724
V\u4f11\u606f
p4725
tp4726
a(L13L
g4724
g4725
tp4727
atp4728
a(V\u6211\u4eec\u90fd\u662f\u597d\u670b\u53cb\uff0c\u641c\u5df2\u6211\u4eec\u8bf7\u4ed6\u51fa\uff22\uff22\uff31\u3002
p4729
(lp4730
(L9L
V\u641c\u5df2
p4731
V\u6240\u4ee5
p4732
tp4733
a(L10L
g4731
g4732
tp4734
a(L15L
V\u51fa\uff22\uff22\uff31
p4735
V\u5403\uff22\uff22\uff31
p4736
tp4737
atp4738
a(V\u4eca\u5929\u65e9\u85cf\uff0c\u6211\u4eec\u516b\u70b9\u51fa\u516c\u8f66\u8d5e\u3002
p4739
(lp4740
(L4L
V\u65e9\u85cf
p4741
V\u65e9\u4e0a
p4742
tp4743
a(L13L
V\u516c\u8f66\u8d5e
p4744
V\u516c\u8f66\u7ad9
p4745
tp4746
atp4747
a(V\u6211\u4eec\u5750\u8f66\uff14\uff15\u5206\u5c31\u5230\uff0c\u6211\u4eec\u5f00\uff22\uff22\uff31\uff0c\u6211\u4eec\u90fd\u5f88\u5feb\uff0c\u6211\u4eec\u73a9\u7684\u6a2a\u9ad8\u5174\u3002
p4748
(lp4749
(L27L
V\u73a9\u7684\u6a2a\u9ad8\u5174
p4750
V\u73a9\u5f97\u5f88\u9ad8\u5174
p4751
tp4752
a(L28L
g4750
g4751
tp4753
atp4754
a(V\u6211\u4eec\u8dd1\u6765\u8dd1\u51fa\uff0c\u4e0d\u77e5\u9053\u8981\u505a\u795e\u9a6c\u3002
p4755
(lp4756
(L13L
V\u505a\u795e\u9a6c
p4757
V\u505a\u4ec0\u4e48
p4758
tp4759
a(L14L
g4757
g4758
tp4760
atp4761
a(V\u4ed6\u6709\u4e24\u4e2a\u5b69\u5b50\uff0c\u7537\u751f\u8fd8\u6709\u52aa\u751f\u3002
p4762
(lp4763
(L12L
V\u52aa\u751f
p4764
V\u5973\u751f
p4765
tp4766
atp4767
a(V\u738b\u5927\u534e\u7684\u5b69\u5b50\u5f88\u997f\u6240\u4ee5\u4ed6\u4eec\u4e70\u5403\u7684\u4e1c\u897f\uff0c\u4ed6\u4eec\u5f88\u9ad8\u884c\u3002
p4768
(lp4769
(L23L
V\u9ad8\u884c
p4770
V\u9ad8\u5174
p4771
tp4772
atp4773
a(V\u4e0b\u5348\u4e09\u70b9\uff0c\u4ed6\u4eec\u5916\u9762\u7684\u65f6\u5019\uff0c\u6709\u5f88\u5927\u7684\u4e0b\u4e0e\u3002
p4774
(lp4775
(L19L
V\u4e0b\u4e0e
p4776
V\u4e0b\u96e8
p4777
tp4778
atp4779
a(V\u738b\u5927\u534e\u5e26\u4ed6\u7684\u4e0e\u6c99\uff0c\u4ed6\u7684\u52aa\u513f\u62a5\u7eb8\u3002
p4780
(lp4781
(L7L
V\u4e0e\u6c99
p4782
V\u96e8\u4f1e
p4783
tp4784
a(L8L
g4782
g4783
tp4785
a(L12L
V\u52aa\u513f
p4786
V\u5973\u513f
p4787
tp4788
atp4789
a(V\u4ed6\u4eec\u90fd\u5f88\u7d2f\uff0c\u8fd8\u6709\u6709\u4e00\u70b9\u9e45\u3002
p4790
(lp4791
(L12L
V\u4e00\u70b9\u9e45
p4792
V\u4e00\u70b9\u997f
p4793
tp4794
atp4795
a(V\u8001\u677f\u544a\u8bc9\u738b\u5927\u534e\u5e2e\u4f60\u70b9\u8521\u3002
p4796
(lp4797
(L11L
V\u70b9\u8521
p4798
V\u70b9\u83dc
p4799
tp4800
atp4801
a(V\u8001\u662f\u8f83\u4e66\u3002
p4802
(lp4803
(L2L
V\u8001\u662f
p4804
V\u8001\u5e08
p4805
tp4806
a(L3L
V\u8f83\u4e66
p4807
V\u6559\u4e66
p4808
tp4809
atp4810
a(V\u6ca1\u60f3\u5230\u5df2\u7ecf\u4e24\u70b9\u949f\u4e86\uff0c\u4ed6\u5c31\u5e72\u5feb\u53bb\u7761\u89c9\u3002
p4811
(lp4812
(L13L
V\u5e72\u5feb
p4813
V\u8d76\u5feb
p4814
tp4815
atp4816
a(V\u6240\u6709\u7684\u5b66\u751f\u90fd\u975e\u5e38\u8ba4\u771f\u4e5f\u5f88\u5b89\u9759\uff0c\u738b\u5929\u534e\u662f\u7b2c\u4e00\u6b21\u4ea4\u5f2e\u7684\u4eba\u3002
p4817
(lp4818
(L24L
V\u4ea4\u5f2e
p4819
V\u4ea4\u5377
p4820
tp4821
atp4822
a(V\u8003\u8bd5\u6211\u8981\u5148\u542c\u8001\u5e08\u4ea4\u4ee3\u8d35\u5b9a\uff0c\u6211\u5f88\u7528\u5fc3\u52aa\u529b\u8003\u8bd5\u3002
p4823
(lp4824
(L11L
V\u8d35\u5b9a
p4825
V\u89c4\u5b9a
p4826
tp4827
atp4828
a(V\u4eca\u5929\u5927\u534e\u4e0a\u8bfe\u8001\u5e08\u544a\u8bc9\u540c\u5b66\u660e\u5929\u8003\u8bd5\uff0c\u4ea4\u540c\u5b66\u4f1a\u53bb\u51c6\u5907\u590d\u4e60\u7b2c\u4e00\u8bfe\u5230\u7b2c\u4e09\u8bfe\u3002
p4829
(lp4830
(L18L
V\u4ea4\u540c\u5b66
p4831
V\u53eb\u540c\u5b66
p4832
tp4833
a(L21L
V\u4f1a\u53bb
p4834
V\u56de\u53bb
p4835
tp4836
atp4837
a(V\u4e0b\u4e86\u8bfe\u5927\u534e\u5c31\u4f1a\u53bb\u5ff5\u4e66\uff0c\u5728\u5bb6\u91cc\u51c6\u5907\u590d\u4e60\u4ece\u7b2c\u4e00\u8bfe\u5230\u7b2c\u4e09\u8bfe\u3002
p4838
(lp4839
(L7L
V\u4f1a\u53bb
p4840
V\u56de\u53bb
p4841
tp4842
atp4843
a(V\u56e0\u4e3a\u8fd9\u4e2a\u9898\u76ee\u5bf9\u4ed6\u6765\u8bf4\u4e0d\u96be\uff0c\u6ca1\u51e0\u5206\u949f\u5979\u5df2\u7ecf\u5c31\u70e4\u597d\u4e86\u3002
p4844
(lp4845
(L18L
V\u5979\u5df2\u7ecf\u5c31\u70e4\u597d\u4e86
p4846
V\u4ed6\u5df2\u7ecf\u5c31\u8003\u597d\u4e86
p4847
tp4848
a(L22L
g4846
g4847
tp4849
atp4850
a(V\u674e\u5927\u660e\u56e0\u4e3a\u6628\u65e5\u8ba4\u771f\u590d\u4e60\uff0c\u6240\u4ee5\u9762\u5bf9\u8003\u8bd5\u7684\u65f6\u5019\u4ed6\u5f88\u6709\u4fe1\u5fc3\uff0c\u800c\u4e14\u5f88\u51c6\u65f6\u7684\u4ea4\u5377\u3002
p4851
(lp4852
(L33L
V\u51c6\u65f6\u7684
p4853
V\u51c6\u65f6\u5730
p4854
tp4855
atp4856
a(V\u6211\u56e0\u8be5\u5b66\u4e60\u6cd5\u6587\uff0c\u56e0\u4e3a\u6211\u660e\u5929\u6709\u6cd5\u6587\u7684\u8003\u8bd5\u3002
p4857
(lp4858
(L2L
V\u56e0\u8be5
p4859
V\u5e94\u8be5
p4860
tp4861
atp4862
a(V\u600e\u4e48\u5e2e\uff1f\u6211\u89c9\u5f97\u8fd9\u4e2a\u6cd5\u6587\u7684\u95ee\u9898\u5f88\u96be\u3002
p4863
(lp4864
(L3L
V\u600e\u4e48\u5e2e
p4865
V\u600e\u4e48\u529e
p4866
tp4867
atp4868
a(V\u5728\u67d0\u67d0\u5927\u6821\u7684\u884c\u9500\u7cfb\u7684\u6559\u8bfe\u975e\u5e38\u8f7b\u677e\u3002
p4869
(lp4870
tp4871
a(V\u4ed6\u5403\u4e86\u665a\u9910\u4e4b\u540e\u9a6c\u4e0a\u5230\u623f\u95f4\u91cc\u62fc\u547d\u7684\u5ff5\u4e66\u5230\u9694\u5929\u65e9\u4e0a\u3002
p4872
(lp4873
(L16L
V\u62fc\u547d\u7684
p4874
V\u62fc\u547d\u5730
p4875
tp4876
atp4877
a(V\u5929\u534e\u89c9\u5f97\u8fd9\u6b21\u7684\u8003\u8bd5\u4e00\u70b9\u90fd\u4e0d\u96be\uff0c\u56e0\u4e3a\u6628\u5929\u665a\u4e0a\u4ed6\u5f88\u8ba4\u9648\u5b66\u4e60\u3002
p4878
(lp4879
(L25L
V\u8ba4\u9648
p4880
V\u8ba4\u771f
p4881
tp4882
atp4883
a(V\u738b\u5929\u534e\u662f\u5979\u73ed\u6700\u5feb\u7684\u5b66\u751f\uff0c\u5929\u82b1\u5f88\u9ad8\u5174\uff0c\u6240\u4ee5\u4eca\u5929\u665a\u4e0a\u5979\u8ddf\u4ed6\u7684\u540c\u5b66\u4e00\u8d77\u53bb\u957f\u5361\u62c9\uff2f\uff2b\u3002
p4884
(lp4885
(L14L
V\u5929\u82b1
p4886
V\u5929\u534e
p4887
tp4888
a(L34L
V\u957f\u5361\u62c9\uff2f\uff2b
p4889
V\u5531\u5361\u62c9\uff2f\uff2b
p4890
tp4891
atp4892
a(V\u5bf9\u4e0d\u8d77\uff0c\u4eca\u56de\u6211\u4e0d\u80fd\u4e00\u8d77\u53bb\uff0c\u90a3\u4e2a\u65f6\u5019\uff0c\u6211\u8981\u53bb\u516c\u4f5c\u7684\u6d41\u884c\u3002
p4893
(lp4894
(L22L
V\u516c\u4f5c
p4895
V\u5de5\u4f5c
p4896
tp4897
a(L25L
V\u6d41\u884c
p4898
V\u65c5\u884c
p4899
tp4900
atp4901
a(V\u70bd\u7231\u7684\u5927\u6c11\uff0c\u4f60\u597d\uff01
p4902
(lp4903
(L1L
V\u70bd\u7231
p4904
V\u631a\u7231
p4905
tp4906
a(L5L
V\u5927\u6c11
p4907
V\u5927\u660e
p4908
tp4909
atp4910
a(V\u5927\u660e\u5f88\u5200\u5251\uff0c\u6628\u5929\u6211\u8bf4\u8ddf\u4f60\u4e00\u8d77\u53bb\u53ef\u662f\u4eca\u5929\u6211\u6709\u4e8b\u60c5\u5728\u5b66\u6821\u6709\u8003\u8bd5\u3002
p4911
(lp4912
(L4L
V\u5f88\u5200\u5251
p4913
V\u5f88\u62b1\u6b49
p4914
tp4915
a(L5L
g4913
g4914
tp4916
atp4917
a(V\u6211\u5f88\u7cfb\u671b\u539f\u8c05\uff0c\u63e1\u795d\u4f60\u8ddf\u540c\u5b66\u51fa\u53bb\u597d\u597d\u73a9\u513f\uff0c\u4f60\u8ddf\u540c\u5b66\u73a9\u7684\u4eba\u5feb\u4e50\uff0c\u8bb0\u5f97\u8981\u5c0f\u5fc3\u3002
p4918
(lp4919
(L3L
V\u7cfb\u671b
p4920
V\u5e0c\u671b
p4921
tp4922
a(L8L
V\u63e1\u795d\u4f60
p4923
V\u6211\u795d\u4f60
p4924
tp4925
atp4926
a(V\u4f60\u9053\u5fb7\u5730\u65c1\u7ed9\u6211\u6253\u7535\u8bdd\u3002
p4927
(lp4928
(L2L
V\u4f60\u9053\u5fb7\u5730\u65c1
p4929
V\u4f60\u5230\u7684\u5730\u65b9
p4930
tp4931
a(L3L
g4929
g4930
tp4932
a(L5L
g4929
g4930
tp4933
atp4934
a(V\u5e94\u4e3a\u6211\u4eec\u516c\u53f8\u6700\u91cd\u8981\u7684\u5ba2\u670d\u4f1a\u6765\u53f0\u6e7e\u3001\u6240\u4ee5\u6211\u4eec\u8981\u4e00\u8d77\u51fa\u53bb\u89c2\u5149\u3002
p4935
(lp4936
(L1L
V\u5e94\u4e3a
p4937
V\u56e0\u4e3a
p4938
tp4939
a(L12L
V\u5ba2\u670d
p4940
V\u5ba2\u6237
p4941
tp4942
atp4943
a(V\u5e94\u4e3a\u5bf9\u6211\u7b2c\u4e00\u6b21\u53bb\u9ad8\u96c4\u6240\u4ee5\u6211\u5f88\u9ad8\u5174\uff0c\u53ef\u662f\u4e0d\u80fd\u53bb\u771f\u53ef\u60dc\u3002
p4944
(lp4945
(L1L
V\u5e94\u4e3a
p4946
V\u56e0\u4e3a
p4947
tp4948
atp4949
a(V\u6211\u8fd9\u4e2a\u6708\u6709\u8003\u8bd5\uff0c\u6240\u4ee5\u6211\u8981\u8d76\u5feb\u5ff5\u4e66\u6ca1\u6709\u65f6\u95f4\u8ddf\u4f60\u53bb\u9664\u53bb\u5b8c\u3002
p4950
(lp4951
(L24L
V\u9664\u53bb\u5b8c
p4952
V\u51fa\u53bb\u73a9
p4953
tp4954
a(L26L
g4952
g4953
tp4955
atp4956
a(V\u6211\u5f88\u60f3\u8ddf\u53bb\uff0c\u53ef\u662f\u6ca1\u529e\u6cd5\u6709\u8003\u8bd5\uff0c\u6211\u5e0c\u671b\u4f60\u7684\u6d41\u661f\u5f88\u597d\u73a9\uff01
p4957
(lp4958
(L21L
V\u6d41\u661f
p4959
V\u65c5\u884c
p4960
tp4961
a(L22L
g4959
g4960
tp4962
atp4963
a(V\u5e0c\u671b\u4f60\u653e\u9001\u5fc3\u60c5\u5730\u5c3d\u91cf\u53bb\u73a9\uff0c\u4f60\u56de\u6765\u7684\u65f6\u5019\u53ef\u4ee5\u8ddf\u6211\u4eec\u5168\u73ed\u540c\u5b66\u4e00\u8d77\u5206\u4eab\u4f60\u53bb\u6e38\u73a9\u7684\u8fc7\u7a0b\u4e2d\uff01
p4964
(lp4965
(L5L
V\u653e\u9001
p4966
V\u653e\u677e
p4967
tp4968
atp4969
a(V\u597d\u4e45\u4e0d\u89c1\uff0c\u60a8\u6700\u8fd1\u5982\u4f55\uff1f\u6211\u8fd8\u662f\u50cf\u4ee5\u524d\u4f9d\u6837\u5f88\u5fd9\u788c\u3002
p4970
(lp4971
(L18L
V\u4f9d\u6837
p4972
V\u4e00\u6837
p4973
tp4974
atp4975
a(V\u660e\u5929\u662f\u91cc\u62dc\u5929\u6211\u60f3\u8bf7\u4f60\u8ddf\u6211\u4e00\u8d77\u51fa\u53bb\u73a9\u3002
p4976
(lp4977
(L4L
V\u91cc\u62dc\u5929
p4978
V\u793c\u62dc\u5929
p4979
tp4980
atp4981
a(V\u6211\u77e5\u9053\u5728\u53f0\u6e7e\u6709\u4e00\u4e2a\u5730\u65c1\u5f88\u7f8e\uff0c\u5c31\u662f\u6de1\u6c34\uff0c\u90a3\u91cc\u6709\u5f88\u591a\u4e1c\u897f\u5f88\u597d\u5403\uff0c\u53c8\u53cb\u5c71\u6709\u6c34\uff0c\u5f88\u6f02\u4eae\u3002
p4982
(lp4983
(L11L
V\u5730\u65c1
p4984
V\u5730\u65b9
p4985
tp4986
a(L32L
V\u53cb\u5c71\u6709\u6c34
p4987
V\u6709\u5c71\u6709\u6c34
p4988
tp4989
atp4990
a(V\u6211\u9879\u5728\u6709\u4e00\u4e2a\u6708\u7684\u7a7a\uff0c\u53ef\u662f\u6211\u8fd8\u6ca1\u51b3\u5b9a\u6211\u505a\u4ec0\u4e48\u3002
p4991
(lp4992
(L2L
V\u9879\u5728
p4993
V\u73b0\u5728
p4994
tp4995
atp4996
a(V\u6211\u89c9\u5f97\u6211\u4eec\u53ef\u4ee5\u51fa\u53bb\u8def\u884c\u53f0\u6e7e\u7684\u5357\u90e8\u8ddf\u53f0\u4e2d\uff0c\u4e2a\u4e2a\u4eba\u90fd\u89c9\u5f97\u5f88\u7f8e\uff0c\u6211\u8981\u8bf7\u4f60\u53bb\u9646\u884c\u3002
p4997
(lp4998
(L10L
V\u8def\u884c
p4999
V\u65c5\u884c
p5000
tp5001
a(L35L
V\u9646\u884c
p5002
g5000
tp5003
atp5004
a(V\u6211\u771f\u8981\u53bb\u770b\u8fd9\u4e9b\u5730\u65b9\uff0c\u56e0\u4e3a\u6211\u4e5f\u4e5f\u662f\u53f0\u6e7e\u4eba\u3002
p5005
(lp5006
(L14L
V\u4e5f\u4e5f
p5007
V\u7237\u7237
p5008
tp5009
a(L15L
g5007
g5008
tp5010
atp5011
a(V\u653e\u5047\u5feb\u8981\u6765\u4e86\uff0c\u66b1\u53cb\u6253\u7b97\u5417\uff1f
p5012
(lp5013
(L8L
V\u66b1\u53cb\u6253\u7b97
p5014
V\u4f60\u6709\u6253\u7b97
p5015
tp5016
a(L9L
g5014
g5015
tp5017
atp5018
a(V\u6211\u60f3\u5230\u6211\u4eec\u53ef\u4ee5\u53bb\u901b\u901b\uff0c\u6211\u60f3\u6211\u4eec\u53ef\u4ee5\u53bb\u53f0\u6e7e\u7136\u540e\u4e13\u673a\u5f80\u65b0\u52a0\u6ce2\u3002
p5019
(lp5020
(L23L
V\u4e13\u673a
p5021
V\u8f6c\u673a
p5022
tp5023
a(L28L
V\u65b0\u52a0\u6ce2
p5024
V\u65b0\u52a0\u5761
p5025
tp5026
atp5027
a(V\u6211\u4eec\u7136\u540e\u53bb\u65b0\u5bb6\u6ce2\u770b\u4ed6\u7684\u57ce\u5e02\u90a3\u4e48\u53d1\u5c55\u3002
p5028
(lp5029
(L7L
V\u65b0\u5bb6\u6ce2
p5030
V\u65b0\u52a0\u5761
p5031
tp5032
a(L8L
g5030
g5031
tp5033
atp5034
a(V\u8bf7\u4f60\u8003\u5229\u4ee5\u4e0b\u6216\u6253\u6211\u4e00\u4e2a\u7535\u8bdd\u3002
p5035
(lp5036
(L4L
V\u8003\u5229\u4ee5\u4e0b
p5037
V\u8003\u8651\u4e00\u4e0b
p5038
tp5039
a(L5L
g5037
g5038
tp5040
atp5041
a(V\u6211\u89c9\u5f97\u5982\u679c\u6211\u4eec\u53c2\u52a0\u8fd9\u4e2a\u6821\u5916\u6559\u5b66\u5e94\u8be5\u4f1a\u8ba4\u8bc6\u65b0\u7684\u53f0\u6e7e\u670b\u53cb\uff0c\u4e5f\u4f1a\u7ec3\u4e60\u6211\u4eec\u7684\u4e2d\u6587\uff0c\u4f60\u8ddf\u6211\u4e00\u8d77\u53bb\u628a\uff01
p5042
(lp5043
(L44L
V\u4e00\u8d77\u53bb\u628a
p5044
V\u4e00\u8d77\u53bb\u5427
p5045
tp5046
atp5047
a(V\u8bf7\u4f60\u5feb\u544a\u8bc9\u6211\u4f60\u613f\u4e0d\u539f\u610f\u8ddf\u6211\u4e00\u8d77\u53bb\u3002
p5048
(lp5049
(L10L
V\u539f\u610f
p5050
V\u613f\u610f
p5051
tp5052
atp5053
a(V\u522b\u611f\u89c9\u5bc4\u602a\u6211\u4e3a\u751a\u4e48\u95ee\u4f60\u8fd9\u4e2a\u95ee\u9898\uff0c\u6211\u60f3\u8ddf\u4f60\u4e00\u5df1\u51fa\u56fd\uff0c\u6211\u667a\u5230\u4f60\u8fd8\u6ca1\u51fa\u8fc7\u56fd\uff0c\u6240\u4ee5\u8fd9\u662f\u4f60\u4e00\u5b9a\u8981\u8ddf\u6211\u4e00\u8d77\u3002
p5054
(lp5055
(L4L
V\u5bc4\u602a
p5056
V\u5947\u602a
p5057
tp5058
a(L22L
V\u4e00\u5df1
p5059
V\u4e00\u8d77
p5060
tp5061
a(L27L
V\u667a\u5230
p5062
V\u77e5\u9053
p5063
tp5064
a(L28L
g5062
g5063
tp5065
a(L39L
V\u8fd9\u662f
p5066
V\u8fd9\u6b21
p5067
tp5068
atp5069
a(V\u6211\u4eec\u521a\u521a\u5c31\u7ed3\u675f\u4e86\u6211\u4eec\u7684\u671f\u4e2d\u8003\u8bd5\uff0c\u6240\u4ee5\u6211\u4eec\u8981\u4f11\u606f\u4e00\u70b9\u3002
p5070
(lp5071
(L25L
V\u4f11\u606f\u4e00\u70b9
p5072
V\u4f11\u606f\u4e00\u5929
p5073
tp5074
atp5075
a(V\u4eca\u5929\u6211\u8981\u544a\u8bc9\u60a8\u4e0b\u4e2a\u6708\u6211\u8981\u4f1a\u6211\u7684\u56fd\u5bb6\uff0c\u56e0\u4e3a\u6211\u5f88\u60f3\u6211\u7684\u7236\u6bcd\uff0c\u6240\u4ee5\u6211\u8981\u95ee\u60a8\u8981\u4e0d\u8981\u8ddf\u6211\u53bb\u6211\u56fd\u5bb6\u3002
p5076
(lp5077
(L13L
V\u6211\u8981\u4f1a\u6211\u7684\u56fd\u5bb6
p5078
V\u6211\u8981\u56de\u6211\u7684\u56fd\u5bb6
p5079
tp5080
atp5081
a(V\u6211\u4eec\u53ef\u4ee5\u53bb\u56db\u73ed\u7259\uff0c\u56e0\u4e3a\u6211\u7684\u7236\u6bcd\u4f4f\u5728\u54ea\u91cc\uff0c\u8fd8\u6709\u5f88\u591a\u5730\u65b9\u6211\u4eec\u53ef\u4ee5\u53bb\u73a9\u3002
p5082
(lp5083
(L6L
V\u56db\u73ed\u7259
p5084
V\u897f\u73ed\u7259
p5085
tp5086
a(L18L
V\u54ea\u91cc
p5087
V\u90a3\u91cc
p5088
tp5089
atp5090
a(V\u6211\u60f3\u8ddf\u4f60\u4e00\u8d77\u53bb\u57a6\u4e01\uff0c\u56e0\u4e3a\u6211\u7684\u670b\u53cb\u8bf4\u54ea\u91cc\u7684\u5929\u6c14\u5f88\u597d\uff0c\u6d77\u8fb9\u98ce\u666f\u5f88\u7f8e\u3002
p5091
(lp5092
(L18L
V\u54ea\u91cc
p5093
V\u90a3\u91cc
p5094
tp5095
atp5096
a(V\u6211\u6253\u7b97\u4e0b\u4e2a\u5468\u672b\u6211\u8ddf\u4f60\u4e00\u8d77\u53bb\u53f0\u5317\u52a8\u7269\u56ed\u3002
p5097
(lp5098
tp5099
a(V\u6211\u89c9\u5f97\u6211\u4eec\u5728\u65e5\u672c\u5b8c\u4e94\u6708\uff0c\u56e0\u4e3a\u6211\u6ca1\u6709\u5de5\u4f5c\u3002
p5100
(lp5101
(L9L
V\u5b8c\u4e94\u6708
p5102
V\u73a9\u4e94\u6708
p5103
tp5104
atp5105
a(V\u6211\u5df2\u7ecf\u6253\u7ed9\u5357\u6fb3\u670b\u53cb\u7535\u8bdd\uff0c\u8e0f\u9752\u6211\u4eec\u7761\u5728\u4ed6\u7684\u5bb6\u3002
p5106
(lp5107
(L13L
V\u8e0f\u9752\u6211\u4eec
p5108
V\u4ed6\u8bf7\u6211\u4eec
p5109
tp5110
a(L14L
g5108
g5109
tp5111
atp5112
a(V\u6211\u4eec\u5230\u6cd5\u56fd\u53bb\uff0c\u597d\u4e0d\u597d\uff1f\u90a3\u4e2a\u65f6\u5019\u6cd5\u8fc7\u90fd\u53bb\u6d77\u8fb9\u653e\u5047\uff0c\u6240\u4ee5\u5728\u5df4\u9ece\u57ce\u5e02\u4eba\u4e0d\u592a\u591a\u3002
p5113
(lp5114
(L17L
V\u6cd5\u8fc7
p5115
V\u6cd5\u56fd
p5116
tp5117
atp5118
a(V\u6211\u4eec\u53ef\u53c2\u89c2\u5f88\u591a\u6709\u540d\u7684\u535a\u7269\u9986\uff0c\u665a\u4e0a\u8fd8\u53ef\u4ee5\u51fa\u95e8\u839e\u513f\u3002
p5119
(lp5120
(L22L
V\u839e\u513f
p5121
V\u73a9\u513f
p5122
tp5123
atp5124
a(V\u4e0b\u4e2a\u661f\u671f\u4f11\u5047\uff0c\u6240\u4ee5\u6211\u60f3\u8ddf\u4f60\u53bb\u8def\u884c\u3002
p5125
(lp5126
(L15L
V\u8def\u884c
p5127
V\u65c5\u884c
p5128
tp5129
atp5130
a(V\u8fd9\u4e2a\u65c5\u884c\u662f\u5929\u4e24\u591c\uff0c\u5370\u5ea6\u7684\u5357\u90e8\u5f88\u6f02\u4eae\uff0c\u98ce\u666f\u4e5f\u5f88\u7f8e\u3002
p5131
(lp5132
(L5L
V\u662f\u5929\u4e24\u591c
p5133
V\u56db\u5929\u4e24\u591c
p5134
tp5135
atp5136
a(V\u5982\u679c\u6211\u4eec\u53ef\u4ee5\u53bb\u4e24\u4e2a\u91cc\u62dc\uff0c\u5c31\u4e00\u952d\u5f88\u597d\u73a9\uff01
p5137
(lp5138
(L10L
V\u91cc\u62dc
p5139
V\u793c\u62dc
p5140
tp5141
a(L15L
V\u4e00\u952d
p5142
V\u4e00\u5b9a
p5143
tp5144
atp5145
a(V\u6211\u771f\u5e0c\u671b\u59b3\u8fd9\u6b21\u53ef\u4ee5\u8ddf\u6211\u5fc6\u8d77\u53bb\u3002
p5146
(lp5147
(L12L
V\u5fc6\u8d77\u53bb
p5148
V\u4e00\u8d77\u53bb
p5149
tp5150
atp5151
a(V\u6211\u4eec\u590f\u5929\u4e00\u8d77\u53bb\u6b27\u6d32\u73a9\uff0c\u597d\u4e0d\u597d\uff1f\u6211\u60f3\u4e03\u6708\u533a\u6700\u597d\u5427\u3002
p5152
(lp5153
(L20L
V\u4e03\u6708\u533a
p5154
V\u4e03\u6708\u53bb
p5155
tp5156
atp5157
a(V\u5982\u679c\u4f60\u60f3\u8981\u53bb\u7684\u8bdd\uff0c\u4f60\u9700\u8981\u5e26\u4e24\u4e2a\u793c\u62dc\u7684\u8863\u670d\uff0c\u5e94\u4e3a\u6211\u4eec\u4f1a\u5728\u54ea\u91cc\u73a9\u4e24\u4e2a\u793c\u62dc\u3002
p5158
(lp5159
(L22L
V\u5e94\u4e3a
p5160
V\u56e0\u4e3a
p5161
tp5162
a(L28L
V\u54ea\u91cc
p5163
V\u90a3\u91cc
p5164
tp5165
atp5166
a(V\u6211\u60f3\u8981\u53bb\u52a0\u62ff\u5927\u73a9\uff0c\u5e94\u4e3a\u6709\u548c\u591a\u597d\u5403\u7684\u3002
p5167
(lp5168
(L10L
V\u5e94\u4e3a
p5169
V\u56e0\u4e3a
p5170
tp5171
a(L13L
V\u548c\u591a
p5172
V\u5f88\u591a
p5173
tp5174
atp5175
a(V\u5982\u679c\u4f60\u53c8\u8981\u53bb\u7684\u8bdd\uff0c\u4f60\u5728\u8ddf\u6211\u8054\u7edc\u3002
p5176
(lp5177
(L4L
V\u4f60\u53c8\u8981\u53bb
p5178
V\u4f60\u6709\u8981\u53bb
p5179
tp5180
a(L11L
V\u5728\u8ddf\u6211\u8054\u7edc
p5181
V\u518d\u8ddf\u6211\u8054\u7edc
p5182
tp5183
atp5184
a(V\u6211\u662f\u738b\u5929\u534e\uff0c\u8ddf\u4f60\u60f3\u8981\u53bb\u6d41\u884c\u3002
p5185
(lp5186
(L12L
V\u6d41\u884c
p5187
V\u65c5\u884c
p5188
tp5189
atp5190
a(V\u60c5\u7231\u7684\u674e\u5927\u660e\u3002
p5191
(lp5192
(L1L
V\u60c5\u7231
p5193
V\u4eb2\u7231
p5194
tp5195
atp5196
a(V\u6211\u53ea\u6709\u6700\u5c0f\u4e00\u4e2a\u6708\u65c5\u884c\uff0c\u4f60\u80fd\u53bb\u591a\u4e45\uff1f
p5197
(lp5198
(L5L
V\u6700\u5c0f
p5199
V\u6700\u5c11
p5200
tp5201
atp5202
a(V\u6ca1\u95ee\u9898\uff0c\u90a3\u4f60\u53bb\u628a\uff01
p5203
(lp5204
(L8L
V\u53bb\u628a
p5205
V\u53bb\u5427
p5206
tp5207
atp5208
a(V\u597d\u4e45\u6ca1\u95f4\uff0c\u8fd8\u6ca1\u95ee\u4f60\u6700\u8fd1\u53bb\u90a3\u91cc\u73b0\u5728\u624d\u56de\u6765\uff0c\u90fd\u6ca1\u8ddf\u6211\u8054\u7edc\u5462\u3002
p5209
(lp5210
(L4L
V\u597d\u4e45\u6ca1\u95f4
p5211
V\u597d\u4e45\u6ca1\u89c1
p5212
tp5213
a(L13L
V\u90a3\u91cc
p5214
V\u54ea\u91cc
p5215
tp5216
atp5217
a(V\u6765\u6211\u4eec\u770b\u8fd9\u8282\u76ee\u5f88\u4e0d\u505a\uff0c\u6211\u5f88\u559c\u6b22\u3002
p5218
(lp5219
(L10L
V\u5f88\u4e0d\u505a
p5220
V\u5f88\u4e0d\u9519
p5221
tp5222
atp5223
a(V\u6211\u89c9\u5f97\u5f88\u653e\u4fbf\uff0c\u6211\u4eec\u4e5f\u53ef\u4ee5\u770b\u7535\u89c6\u7684\u68d2\u7403\uff0c\u6211\u4eec\u90fd\u5f88\u559c\u6b22\u68d2\u7403\uff0c\u56e0\u4e3a\u5c0f\u7684\u65f6\u5019\u6211\u4eec\u6bcf\u5929\u6253\u68d2\u7403\u3002
p5224
(lp5225
(L5L
V\u653e\u4fbf
p5226
V\u65b9\u4fbf
p5227
tp5228
atp5229
a(V\u6211\u4eec\u73a9\u7740\u73a9\u8005\u5c31\u7761\u89c9\u4e86\u3002
p5230
(lp5231
(L6L
V\u73a9\u7740\u73a9\u8005
p5232
V\u73a9\u7740\u73a9\u7740
p5233
tp5234
atp5235
a(V\u674e\u5927\u660e\u53bb\u51b0\u7bb1\u62ff\u4e00\u4e9b\u70b9\u5fc3\u62ff\u4e00\u4e9b\u751c\u70b9\u8ddf\u4e24\u914d\u5564\u9152\u3002
p5236
(lp5237
(L19L
V\u4e24\u914d
p5238
V\u4e24\u74f6
p5239
tp5240
atp5241
a(V\u6709\u7684\u65f6\u5019\u53cd\u5bf9\u4e00\u4e9b\u88c1\u677f\u8bf4\u7684\uff0c\u4ed6\u95e8\u5c31\u751f\u6c14\u56e0\u4e3a\u53eb\u7684\u6413\u6709\u4e00\u70b9\u4e0d\u516c\u5e73\uff0c\u4ed6\u4eec\u5c31\u5927\u9a82\u5927\u53eb\u3002
p5242
(lp5243
(L10L
V\u88c1\u677f
p5244
V\u88c1\u5224
p5245
tp5246
a(L15L
V\u4ed6\u95e8
p5247
V\u4ed6\u4eec
p5248
tp5249
a(L23L
V\u53eb\u7684\u6413
p5250
V\u53eb\u7684\u8bf4
p5251
tp5252
atp5253
a(V\u4ed6\u4eec\u82b1\u4e86\u4e00\u5929\u518d\u770b\u90a3\u4e2a\u7403\u8d5b\u3002
p5254
(lp5255
(L7L
V\u518d\u770b\u90a3\u4e2a\u7403\u8d5b
p5256
V\u5728\u770b\u90a3\u4e2a\u7403\u8d5b
p5257
tp5258
atp5259
a(V\u6628\u5929\u665a\u4e0a\uff0c\u674e\u5927\u660e\u8bf7\u4e86\u4e00\u4e2a\u597d\u670b\u53cb\u6765\u4ed6\u5bb6\u4e3a\u4e86\u4e00\u8d77\u770b\u4e00\u4e2a\u68d2\u7403\u6bd4\u585e\u3002
p5260
(lp5261
(L29L
V\u6bd4\u585e
p5262
V\u6bd4\u8d5b
p5263
tp5264
atp5265
a(V\u4ed6\u7684\u670b\u53cb\u516b\u70b9\u949f\u5df2\u7ecf\u5230\u4e86\uff0c\u6bd4\u585e\u8fd8\u6ca1\u5f00\u59cb\u3002
p5266
(lp5267
(L14L
V\u6bd4\u585e
p5268
V\u6bd4\u8d5b
p5269
tp5270
atp5271
a(V\u7136\u540e\u4ed6\u56de\u6765\u5ba2\u5385\uff0c\u56e0\u4e3a\u6bd4\u585e\u5feb\u5230\u5f00\u59cb\u4e86\u3002
p5272
(lp5273
(L12L
V\u6bd4\u585e
p5274
V\u6bd4\u8d5b
p5275
tp5276
atp5277
a(V\u4e00\u904d\u4ed6\u4eec\u559d\u9189\u4e86\uff0c\u4e00\u904d\u4ed6\u4eec\u652f\u6301\u7684\u68d2\u7403\u961f\u4e5f\u8d62\u4e86\u3002
p5278
(lp5279
(L2L
V\u4e00\u904d
p5280
V\u4e00\u8fb9
p5281
tp5282
a(L10L
g5280
g5281
tp5283
atp5284
a(V\u6ca1\u6709\u5173\u7cfb\u4e5f\u770b\u6211\u7684\u7535\u89c6\uff0c\u514d\u8d39\uff01\u6e05\u7b49\u6211\u56de\u6765\u3002
p5285
(lp5286
(L15L
V\u6e05\u7b49\u6211
p5287
V\u8bf7\u7b49\u6211
p5288
tp5289
atp5290
a(V\u4ed6\u6765\u6211\u5bb6\u7684\u65f6\uff0c\u6211\u8fd8\u6ca1\u6709\u51c6\u5907\u597d\uff0c\u6240\u4ee5\u6211\u5148\u8bf7\u4ed6\u5728\u5ba2\u5385\u5ea7\u4e00\u4e0b\u770b\u7535\u89c6\u3002
p5291
(lp5292
(L25L
V\u5ea7\u4e00\u4e0b
p5293
V\u5750\u4e00\u4e0b
p5294
tp5295
atp5296
a(V\u5728\u5ba2\u5385\u6211\u8bf4\u4e86\uff0c\u8bf7\u5ea7\u7b49\u4e00\u4e0b\uff0c\u8bf7\u770b\u7535\u89c6\u3002
p5297
(lp5298
(L9L
V\u8bf7\u5ea7
p5299
V\u8bf7\u5750
p5300
tp5301
atp5302
a(V\u6211\u770b\u4ed6\u7684\u65f6\u5019\u6211\u5f88\u9ad8\u5fc3\uff0c\u56e0\u4e3a\u4e0a\u5b50\u6211\u770b\u4ed6\u662f\u4e00\u5e74\u4ee5\u524d\u3002
p5303
(lp5304
(L10L
V\u9ad8\u5fc3
p5305
V\u9ad8\u5174
p5306
tp5307
a(L15L
V\u4e0a\u5b50
p5308
V\u4e0a\u6b21
p5309
tp5310
atp5311
a(V\u4e0d\u8fc7\uff5e\u6211\u6ca1\u60f3\u5230\u90a3\u5929\u6709\u4e00\u4e2a\u5f88\u7279\u522b\u7684\u677f\u7403\uff01
p5312
(lp5313
(L17L
V\u677f\u7403
p5314
V\u68d2\u7403
p5315
tp5316
atp5317
a(V\u6211\u4eec\u559d\u4e86\u5f88\u591a\u53ef\u4e50\uff0c\u5403\u4e86\u5f88\u591a\u4e1c\u897f\uff0c\u53ef\u662f\u6211\u4e5f\u559d\u4e86\u4e24\u676f\u5564\u9152\uff0c\u6240\u4ee5\u6211\u5f88\u9ad8\u5fc3\u3002
p5318
(lp5319
(L33L
V\u9ad8\u5fc3
p5320
V\u9ad8\u5174
p5321
tp5322
atp5323
a(V\u90a3\u5929\u4ed6\u9ad8\u5fc3\u7684\u6ca1\u8bf4\u8bdd\uff0c\u6240\u4ee5\u5979\u51b3\u5b9a\u4e0b\u4e2a\u793c\u62dc\u8bf7\u6211\u53bb\u4ed6\u7684\u5bb6\u73a9\u3002
p5324
(lp5325
(L5L
V\u9ad8\u5fc3
p5326
V\u9ad8\u5174
p5327
tp5328
atp5329
a(V\u7136\u540e\u4ed6\u7684\u670b\u53cb\u8fdb\u6765\u5927\u6c11\u7684\u623f\u95f4\u3002
p5330
(lp5331
(L10L
V\u5927\u6c11
p5332
V\u5927\u660e
p5333
tp5334
atp5335
a(V\u674e\u5927\u660e\u8bf4\u4ed6\u4e0d\u8981\u5ba2\u6c14\u3001\u8bf7\u5ea7\u3002
p5336
(lp5337
(L12L
V\u8bf7\u5ea7
p5338
V\u8bf7\u5750
p5339
tp5340
atp5341
a(V\u6211\u60f3\u62ff\u51fa\u6765\u4e00\u4e9b\u5564\u9152\uff0c\u4e00\u4e9b\u5e73\u5e72\u3002
p5342
(lp5343
(L13L
V\u5e73\u5e72
p5344
V\u997c\u5e72
p5345
tp5346
atp5347
a(V\u5927\u660e\u4e00\u4e9b\u5564\u9152\u548c\u4e00\u4e9b\u5e73\u5e72\u62ff\u51fa\u6765\u5728\u51b7\u7bb1\u3002
p5348
(lp5349
(L10L
V\u5e73\u5e72
p5350
V\u997c\u5e72
p5351
tp5352
atp5353
a(V\u6211\u4eec\u8981\u4e00\u8d77\u770b\u65c1\u68d2\u7403\u7684\u6bd4\u8d5b\uff0c\u8ddf\u670b\u53cb\u4e00\u8d77\u770b\u6bd4\u4e00\u4e2a\u4eba\u770b\u597d\u5f88\u591a\u3002
p5354
(lp5355
(L7L
V\u770b\u65c1
p5356
V\u770b\u76d8
p5357
tp5358
atp5359
a(V\u6628\u5929\u5bf9\u5979\u6ca1\u6765\u8bf4\u662f\u4e00\u4e2a\u5f88\u7279\u522b\u7684\u65e5\u5b50\uff0c\u53f0\u6e7e\u548c\u7f8e\u56fd\u68d2\u7403\u6bd4\u8d5b\u6700\u540e\u7684\u4e00\u5929\u3002
p5360
(lp5361
(L5L
V\u5979\u6ca1
p5362
V\u5979\u4eec
p5363
tp5364
atp5365
a(V\u6d4b\u5929\u738b\u5929\u534e\u5f88\u65e9\u5c31\u6253\u7535\u8bdd\u7ea6\u674e\u5927\u660e\u6628\u5929\u4e0b\u5348\u4e24\u70b9\u5230\u4ed6\u5bb6\u4e00\u8d77\u770b\u6bd4\u8d5b\u3002
p5366
(lp5367
(L1L
V\u6d4b\u5929
p5368
V\u8fd9\u5929
p5369
tp5370
atp5371
a(V\u738b\u5929\u534e\u81ea\u5df1\u77e5\u9053\u9519\u4e86\u9a6c\u4e0a\u8ddf\u7238\u5988\u8bf4\u5bf9\u4e0d\u8d77\uff0c\u4ed6\u7238\u5988\u6ca1\u6709\u9a82\u4ed6\u53ea\u8bf4\u4ed6\u4ee5\u540e\u4e0d\u53ef\u4ee5\u8fd9\u6837\u8005\u3002
p5372
(lp5373
(L37L
V\u8fd9\u6837\u8005
p5374
V\u8fd9\u6837\u5b50
p5375
tp5376
atp5377
a(V\u6211\u7684\u65f6\u95f4\u4e0d\u518d\uff0c\u6240\u4ee5\u8fd8\u6ca1\u770b\u5230\u4ed6\u3002
p5378
(lp5379
(L6L
V\u4e0d\u518d
p5380
V\u4e0d\u5728
p5381
tp5382
atp5383
a(V\u4ed6\u5728\u5bb6\u91cc\u770b\u7535\u89c6\u7684\u65f6\u95f4\uff0c\u542c\u5230\u6709\u4eba\u53eb\u4eec\uff0c\u7136\u540e\u4ed6\u53bb\u5f00\u95e8\u770b\u5230\u738b\u5148\u751f\u6765\u770b\u5bb6\u6211\u4eec\uff0c\u4ed6\u771f\u7684\u597d\u5f00\u5174\u4e86\uff01
p5384
(lp5385
(L17L
V\u53eb\u4eec
p5386
V\u53eb\u95e8
p5387
tp5388
a(L41L
V\u5f00\u5174
p5389
V\u5f00\u5fc3
p5390
tp5391
atp5392
a(V\u90a3\u5929\u738b\u5148\u751f\u9994\u8863\u670d\u5f88\u597d\u770b\uff0c\u8fd8\u6709\u5e26\u84dd\u8272\u7684\u5e3d\u5b50\u3002
p5393
(lp5394
(L6L
V\u9994\u8863\u670d
p5395
V\u7a7f\u8863\u670d
p5396
tp5397
atp5398
a(V\u4ed6\u5f88\u5feb\u53bb\u91cc\u9762\u5f00\u51b0\u7bb1\uff0c\u4ed6\u62ff\u4e00\u822c\u997c\u5e72\uff0c\u6839\u51e0\u676f\u53ef\u4e50\u53bb\u5ba2\u5385\u5403\u3002
p5399
(lp5400
(L14L
V\u4e00\u822c
p5401
V\u4e00\u76d8
p5402
tp5403
a(L18L
V\u6839\u51e0\u676f\u53ef\u4e50
p5404
V\u8ddf\u51e0\u676f\u53ef\u4e50
p5405
tp5406
atp5407
a(V\u738b\u5148\u751f\u8ddf\u4ed6\u8bf4\u597d\u591a\u8bdd\uff0c\u4ed6\u4eec\u4e00\u76f4\u8bf4\u8bdd\u4e00\u76f4\u7b11\u5f88\u5f00\u5174\u4e86\uff01
p5408
(lp5409
(L22L
V\u5f00\u5174
p5410
V\u5f00\u5fc3
p5411
tp5412
atp5413
a(V\u6539\u5929\u6211\u4eec\u4e00\u76f4\u8d70\uff0c\u597d\u4e0d\u597d\uff1f
p5414
(lp5415
(L6L
V\u4e00\u76f4\u8d70
p5416
V\u4e00\u8d77\u8d70
p5417
tp5418
atp5419
a(V\u7b2c\u4e00\u4f4d\u60c5\u7b2c\u4e8c\u4f4d\uff0c\u4ed6\u8bf4\uff1a\u7b2c\u4e8c\u4f4d\u4f60\u597d\u3002
p5420
(lp5421
(L4L
V\u60c5
p5422
V\u8bf7
p5423
tp5424
atp5425
a(V\u7b2c\u4e00\u4f4d\u8ddf\u7b2c\u4e8c\u4f4d\u8bf4\uff1a\u60c5\u5750\u3002
p5426
(lp5427
(L10L
V\u60c5\u5750
p5428
V\u8bf7\u5750
p5429
tp5430
atp5431
a(V\u51ef\u94a7\u90a3\u5929\u5bf9\u6211\u5f88\u597d\uff0c\u8bf7\u6211\u5ea7\u5728\u6c99\u53d1\u4e0a\uff0c\u7136\u540e\u5c31\u53bb\u4e86\u53a8\u623f\u5e2e\u6211\u4eec\u4ece\u51b0\u7bb1\u91cc\u62ff\u996e\u6599\u548c\u997c\u5e72\u3002
p5432
(lp5433
(L12L
V\u5ea7\u5728
p5434
V\u5750\u5728
p5435
tp5436
atp5437
a(V\u90a3\u5929\u7684\u68d2\u7403\u6bd4\u8d5b\u5206\u6570\u5f88\u63a5\u8fd1\uff0c\u6211\u4eec\u770b\u4e86\u5f88\u7ecf\u5f20\uff0c\u53ef\u662f\u6211\u4eec\u89c9\u5f97\u5f88\u5f00\u5fc3\u3002
p5438
(lp5439
(L19L
V\u7ecf\u5f20
p5440
V\u7d27\u5f20
p5441
tp5442
atp5443
a(V\u8fd9\u4e2a\u4e8b\u60c5\u4e00\u822c\u662f\u6211\u4eec\u6700\u559c\u6b22\u7684\u4eab\u53d7\uff0c\u6211\u4eec\u4e0d\u662f\u770b\u8f95\u52a8\u6bd4\u8d5b\uff0c\u5c31\u662f\u5728\u8f95\u52a8\u573a\u73a9\u7403\u3002
p5444
(lp5445
(L22L
V\u8f95\u52a8\u6bd4\u8d5b
p5446
V\u8fd0\u52a8\u6bd4\u8d5b
p5447
tp5448
a(L30L
V\u8f95\u52a8\u573a
p5449
V\u8fd0\u52a8\u573a
p5450
tp5451
atp5452
a(V\u4ed6\u544a\u8bc9\u6211\u4ed6\u73b0\u5728\u8bfb\u4e66\u5728\u53f0\u6e7e\u5927\u5b66\uff0c\u4ed6\u96ea\u5730\u91cc\u3002
p5453
(lp5454
(L17L
V\u96ea\u5730\u91cc
p5455
V\u5b66\u5730\u7406
p5456
tp5457
a(L19L
g5455
g5456
tp5458
atp5459
a(V\u4f5c\u5929\u6211\u7684\u53eb\u674e\u5927\u660e\u7684\u597d\u670b\u53cb\u5230\u6211\u5bb6\u6765\u3002
p5460
(lp5461
(L1L
V\u4f5c\u5929
p5462
V\u6628\u5929
p5463
tp5464
atp5465
a(V\u4ed6\u5e73\u5e38\u6765\u4e00\u70b9\u65e9\uff0c\u53ef\u662f\u4f5c\u5929\u4ed6\u6765\u4e86\u4e00\u70b9\u665a\u3002
p5466
(lp5467
(L11L
V\u4f5c\u5929
p5468
V\u6628\u5929
p5469
tp5470
atp5471
a(V\u6211\u51c6\u5907\u4e00\u4e9b\u9762\u5305\u7ed9\u4ed6\u5403\uff0c\u6211\u4e5f\u4ece\u51b0\u7bb1\u62ff\u51fa\u6765\u4e86\u57e4\u9152\u3002
p5472
(lp5473
(L21L
V\u57e4\u9152
p5474
V\u5564\u9152
p5475
tp5476
atp5477
a(V\u6211\u4eec\u90fd\u8d85\u7231\u559d\u57e4\u9152\u3002
p5478
(lp5479
(L7L
V\u57e4\u9152
p5480
V\u5564\u9152
p5481
tp5482
atp5483
a(V\u5750\u5728\u6c99\u53d1\uff0c\u559d\u9152\u548c\u770b\u822c\u7403\u7ed9\u6211\u5f88\u9ad8\u5174\u3002
p5484
(lp5485
(L10L
V\u770b\u822c\u7403
p5486
V\u770b\u68d2\u7403
p5487
tp5488
atp5489
a(V\u6211\u60f3\u8981\u559d\u7684\u4e1c\u897f\uff0c\u6211\u9932\u5f97\u4e0d\u5f97\u4e86\u3002
p5490
(lp5491
(L10L
V\u9932\u5f97\u4e0d\u5f97\u4e86
p5492
V\u6e34\u5f97\u4e0d\u5f97\u4e86
p5493
tp5494
atp5495
a(V\u5929\u660e\u5230\u53a8\u623f\u53bb\u62ff\u5564\u9152\u8ddf\u7d63\u5e72\uff0c\u8bf7\u4ed6\u7684\u670b\u53cb\u4e00\u8fb9\u770b\u7535\u89c6\u4e00\u8fb9\u5403\u7d63\u5e72\u3001\u559d\u5564\u9152\u3002
p5496
(lp5497
(L11L
V\u7d63\u5e72
p5498
V\u997c\u5e72
p5499
tp5500
a(L27L
g5498
g5499
tp5501
atp5502
a(V\u4ed6\u4eec\u5403\u4e86\u5b8c\u7d63\u5e72\uff0c\u4e5f\u559d\u4e86\u5b8c\u5564\u9152\u3002
p5503
(lp5504
(L6L
V\u7d63\u5e72
p5505
V\u997c\u5e72
p5506
tp5507
atp5508
a.